---
triple:          'arm64-apple-darwin'
binary-path:     app
relocations:
  - { offsetInCU: 0x5AAD, offset: 0x5AAD, size: 0x8, addend: 0x0, symName: __ZNSt3__124__put_character_sequenceB7v160006IcNS_11char_traitsIcEEEERNS_13basic_ostreamIT_T0_EES7_PKS4_m, symObjAddr: 0x395C, symBinAddr: 0x100007998, symSize: 0x1F4 }
  - { offsetInCU: 0x7AA5, offset: 0x7AA5, size: 0x8, addend: 0x0, symName: __ZNSt3__1lsB7v160006INS_11char_traitsIcEEEERNS_13basic_ostreamIcT_EES6_PKc, symObjAddr: 0x64, symBinAddr: 0x1000040A0, symSize: 0x48 }
  - { offsetInCU: 0x7AEB, offset: 0x7AEB, size: 0x8, addend: 0x0, symName: __ZNSt3__14endlB7v160006IcNS_11char_traitsIcEEEERNS_13basic_ostreamIT_T0_EES7_, symObjAddr: 0x3A8, symBinAddr: 0x1000043E4, symSize: 0x58 }
  - { offsetInCU: 0x7B2B, offset: 0x7B2B, size: 0x8, addend: 0x0, symName: __ZNSt3__1lsB7v160006INS_11char_traitsIcEEEERNS_13basic_ostreamIcT_EES6_c, symObjAddr: 0x400, symBinAddr: 0x10000443C, symSize: 0x34 }
  - { offsetInCU: 0x7B71, offset: 0x7B71, size: 0x8, addend: 0x0, symName: __ZNSt3__1neB7v160006IPP4NodeEEbRKNS_11__wrap_iterIT_EES8_, symObjAddr: 0xFEC, symBinAddr: 0x100005028, symSize: 0x34 }
  - { offsetInCU: 0x7BB4, offset: 0x7BB4, size: 0x8, addend: 0x0, symName: __ZNSt3__119__debug_db_insert_cB7v160006INS_6vectorIP4NodeNS_9allocatorIS3_EEEEEEvPT_, symObjAddr: 0x24CC, symBinAddr: 0x100006508, symSize: 0x10 }
  - { offsetInCU: 0x7BE5, offset: 0x7BE5, size: 0x8, addend: 0x0, symName: __ZNSt3__119__debug_db_insert_cB7v160006INS_6vectorIiNS_9allocatorIiEEEEEEvPT_, symObjAddr: 0x262C, symBinAddr: 0x100006668, symSize: 0x10 }
  - { offsetInCU: 0x7C16, offset: 0x7C16, size: 0x8, addend: 0x0, symName: __ZNSt3__118__debug_db_erase_cB7v160006INS_6vectorIiNS_9allocatorIiEEEEEEvPT_, symObjAddr: 0x28E8, symBinAddr: 0x100006924, symSize: 0x10 }
  - { offsetInCU: 0x7C47, offset: 0x7C47, size: 0x8, addend: 0x0, symName: __ZNSt3__112__to_addressB7v160006IiEEPT_S2_, symObjAddr: 0x2A2C, symBinAddr: 0x100006A68, symSize: 0x14 }
  - { offsetInCU: 0x7C7C, offset: 0x7C7C, size: 0x8, addend: 0x0, symName: __ZNSt3__130__libcpp_is_constant_evaluatedB7v160006Ev, symObjAddr: 0x2B90, symBinAddr: 0x100006BCC, symSize: 0xC }
  - { offsetInCU: 0x7C99, offset: 0x7C99, size: 0x8, addend: 0x0, symName: __ZNSt3__119__libcpp_deallocateB7v160006EPvmm, symObjAddr: 0x2B9C, symBinAddr: 0x100006BD8, symSize: 0x30 }
  - { offsetInCU: 0x7CE1, offset: 0x7CE1, size: 0x8, addend: 0x0, symName: __ZNSt3__127__do_deallocate_handle_sizeB7v160006IJEEEvPvmDpT_, symObjAddr: 0x2BCC, symBinAddr: 0x100006C08, symSize: 0x28 }
  - { offsetInCU: 0x7D1F, offset: 0x7D1F, size: 0x8, addend: 0x0, symName: __ZNSt3__124__libcpp_operator_deleteB7v160006IJPvEEEvDpT_, symObjAddr: 0x2BF4, symBinAddr: 0x100006C30, symSize: 0x24 }
  - { offsetInCU: 0x7D54, offset: 0x7D54, size: 0x8, addend: 0x0, symName: __ZNSt3__118__debug_db_erase_cB7v160006INS_6vectorIP4NodeNS_9allocatorIS3_EEEEEEvPT_, symObjAddr: 0x2E94, symBinAddr: 0x100006ED0, symSize: 0x10 }
  - { offsetInCU: 0x7D85, offset: 0x7D85, size: 0x8, addend: 0x0, symName: __ZNSt3__112__to_addressB7v160006IP4NodeEEPT_S4_, symObjAddr: 0x2FD8, symBinAddr: 0x100007014, symSize: 0x14 }
  - { offsetInCU: 0x7DBA, offset: 0x7DBA, size: 0x8, addend: 0x0, symName: __ZNSt3__116__pad_and_outputB7v160006IcNS_11char_traitsIcEEEENS_19ostreambuf_iteratorIT_T0_EES6_PKS4_S8_S8_RNS_8ios_baseES4_, symObjAddr: 0x3BB4, symBinAddr: 0x100007BF0, symSize: 0x248 }
  - { offsetInCU: 0x7E89, offset: 0x7E89, size: 0x8, addend: 0x0, symName: __ZNSt3__119__debug_db_insert_cB7v160006INS_12basic_stringIcNS_11char_traitsIcEENS_9allocatorIcEEEEEEvPT_, symObjAddr: 0x4070, symBinAddr: 0x1000080AC, symSize: 0x10 }
  - { offsetInCU: 0x7EBA, offset: 0x7EBA, size: 0x8, addend: 0x0, symName: __ZNSt3__112__to_addressB7v160006IKcEEPT_S3_, symObjAddr: 0x413C, symBinAddr: 0x100008178, symSize: 0x14 }
  - { offsetInCU: 0x7F22, offset: 0x7F22, size: 0x8, addend: 0x0, symName: __ZNSt3__19use_facetB7v160006INS_5ctypeIcEEEERKT_RKNS_6localeE, symObjAddr: 0x440C, symBinAddr: 0x100008448, symSize: 0x2C }
  - { offsetInCU: 0x83F1, offset: 0x83F1, size: 0x8, addend: 0x0, symName: __ZNSt3__118__constexpr_strlenB7v160006EPKc, symObjAddr: 0x44A4, symBinAddr: 0x1000084E0, symSize: 0x24 }
  - { offsetInCU: 0x841D, offset: 0x841D, size: 0x8, addend: 0x0, symName: __ZNSt3__13maxB7v160006ImEERKT_S3_S3_, symObjAddr: 0x4A94, symBinAddr: 0x100008AD0, symSize: 0x2C }
  - { offsetInCU: 0x8460, offset: 0x8460, size: 0x8, addend: 0x0, symName: __ZNSt3__13minB7v160006ImEERKT_S3_S3_, symObjAddr: 0x4AC0, symBinAddr: 0x100008AFC, symSize: 0x2C }
  - { offsetInCU: 0x86A4, offset: 0x86A4, size: 0x8, addend: 0x0, symName: __ZNSt3__13minB7v160006ImNS_6__lessImmEEEERKT_S5_S5_T0_, symObjAddr: 0x4B4C, symBinAddr: 0x100008B88, symSize: 0x54 }
  - { offsetInCU: 0x8739, offset: 0x8739, size: 0x8, addend: 0x0, symName: __ZNSt3__120__throw_length_errorB7v160006EPKc, symObjAddr: 0x4C28, symBinAddr: 0x100008C64, symSize: 0x64 }
  - { offsetInCU: 0x8761, offset: 0x8761, size: 0x8, addend: 0x0, symName: __ZNSt3__13maxB7v160006ImNS_6__lessImmEEEERKT_S5_S5_T0_, symObjAddr: 0x4D0C, symBinAddr: 0x100008D48, symSize: 0x54 }
  - { offsetInCU: 0x87BB, offset: 0x87BB, size: 0x8, addend: 0x0, symName: __ZNSt3__119__allocate_at_leastB7v160006INS_9allocatorIP4NodeEEEENS_19__allocation_resultINS_16allocator_traitsIT_E7pointerEEERS7_m, symObjAddr: 0x4E70, symBinAddr: 0x100008EAC, symSize: 0x40 }
  - { offsetInCU: 0x87FE, offset: 0x87FE, size: 0x8, addend: 0x0, symName: __ZNSt3__117__libcpp_allocateB7v160006Emm, symObjAddr: 0x5020, symBinAddr: 0x10000905C, symSize: 0x28 }
  - { offsetInCU: 0x883B, offset: 0x883B, size: 0x8, addend: 0x0, symName: __ZNSt3__121__libcpp_operator_newB7v160006IJmEEEPvDpT_, symObjAddr: 0x5048, symBinAddr: 0x100009084, symSize: 0x24 }
  - { offsetInCU: 0x8874, offset: 0x8874, size: 0x8, addend: 0x0, symName: __ZNSt3__142__uninitialized_allocator_move_if_noexceptB7v160006INS_9allocatorIP4NodeEENS_16reverse_iteratorIPS3_EES7_S3_vEET1_RT_T0_SB_S8_, symObjAddr: 0x50D0, symBinAddr: 0x10000910C, symSize: 0xE8 }
  - { offsetInCU: 0x88F1, offset: 0x88F1, size: 0x8, addend: 0x0, symName: __ZNSt3__14swapB7v160006IPP4NodeEEvRT_S5_, symObjAddr: 0x5204, symBinAddr: 0x100009240, symSize: 0x3C }
  - { offsetInCU: 0x8942, offset: 0x8942, size: 0x8, addend: 0x0, symName: __ZNSt3__125__debug_db_invalidate_allB7v160006INS_6vectorIP4NodeNS_9allocatorIS3_EEEEEEvPT_, symObjAddr: 0x52EC, symBinAddr: 0x100009328, symSize: 0x10 }
  - { offsetInCU: 0x8973, offset: 0x8973, size: 0x8, addend: 0x0, symName: __ZNSt3__1neB7v160006IPP4NodeS3_EEbRKNS_16reverse_iteratorIT_EERKNS4_IT0_EE, symObjAddr: 0x52FC, symBinAddr: 0x100009338, symSize: 0x48 }
  - { offsetInCU: 0x89E4, offset: 0x89E4, size: 0x8, addend: 0x0, symName: __ZNSt3__114__construct_atB7v160006IP4NodeJS2_EPS2_EEPT_S5_DpOT0_, symObjAddr: 0x5344, symBinAddr: 0x100009380, symSize: 0x2C }
  - { offsetInCU: 0x8A54, offset: 0x8A54, size: 0x8, addend: 0x0, symName: __ZNSt3__112__to_addressB7v160006INS_16reverse_iteratorIPP4NodeEEvEENS_5decayIDTclsr19__to_address_helperIT_EE6__callclsr3stdE7declvalIRKS7_EEEEE4typeES9_, symObjAddr: 0x5370, symBinAddr: 0x1000093AC, symSize: 0x24 }
  - { offsetInCU: 0x8A8A, offset: 0x8A8A, size: 0x8, addend: 0x0, symName: __ZNSt3__14moveB7v160006INS_16reverse_iteratorIPP4NodeEES5_EET0_T_S7_S6_, symObjAddr: 0x53DC, symBinAddr: 0x100009418, symSize: 0x78 }
  - { offsetInCU: 0x8B0D, offset: 0x8B0D, size: 0x8, addend: 0x0, symName: __ZNSt3__16__moveB7v160006INS_17_ClassicAlgPolicyENS_16reverse_iteratorIPP4NodeEES6_S6_EENS_4pairIT0_T2_EES8_T1_S9_, symObjAddr: 0x54C4, symBinAddr: 0x100009500, symSize: 0x64 }
  - { offsetInCU: 0x8B79, offset: 0x8B79, size: 0x8, addend: 0x0, symName: __ZNSt3__123__dispatch_copy_or_moveB7v160006INS_17_ClassicAlgPolicyENS_11__move_loopIS1_EENS_14__move_trivialENS_16reverse_iteratorIPP4NodeEES9_S9_EENS_4pairIT2_T4_EESB_T3_SC_, symObjAddr: 0x5528, symBinAddr: 0x100009564, symSize: 0x7C }
  - { offsetInCU: 0x8BF7, offset: 0x8BF7, size: 0x8, addend: 0x0, symName: __ZNSt3__121__unwrap_and_dispatchB7v160006INS_10__overloadINS_11__move_loopINS_17_ClassicAlgPolicyEEENS_14__move_trivialEEENS_16reverse_iteratorIPP4NodeEESB_SB_Li0EEENS_4pairIT0_T2_EESD_T1_SE_, symObjAddr: 0x55A4, symBinAddr: 0x1000095E0, symSize: 0x12C }
  - { offsetInCU: 0x8C87, offset: 0x8C87, size: 0x8, addend: 0x0, symName: __ZNSt3__114__unwrap_rangeB7v160006INS_16reverse_iteratorIPP4NodeEES5_EENS_4pairIT0_S7_EET_S9_, symObjAddr: 0x56D0, symBinAddr: 0x10000970C, symSize: 0x84 }
  - { offsetInCU: 0x8E1A, offset: 0x8E1A, size: 0x8, addend: 0x0, symName: __ZNSt3__113__unwrap_iterB7v160006INS_16reverse_iteratorIPP4NodeEENS_18__unwrap_iter_implIS5_Lb0EEELi0EEEDTclsrT0_8__unwrapclsr3stdE7declvalIT_EEEES9_, symObjAddr: 0x57F4, symBinAddr: 0x100009830, symSize: 0x44 }
  - { offsetInCU: 0x8E5E, offset: 0x8E5E, size: 0x8, addend: 0x0, symName: __ZNSt3__19make_pairB7v160006INS_16reverse_iteratorIPP4NodeEES5_EENS_4pairINS_18__unwrap_ref_decayIT_E4typeENS7_IT0_E4typeEEEOS8_OSB_, symObjAddr: 0x5838, symBinAddr: 0x100009874, symSize: 0x38 }
  - { offsetInCU: 0x8EAD, offset: 0x8EAD, size: 0x8, addend: 0x0, symName: __ZNSt3__114__rewrap_rangeB7v160006INS_16reverse_iteratorIPP4NodeEES5_EET_S6_T0_, symObjAddr: 0x5870, symBinAddr: 0x1000098AC, symSize: 0x5C }
  - { offsetInCU: 0x8EF9, offset: 0x8EF9, size: 0x8, addend: 0x0, symName: __ZNSt3__113__rewrap_iterB7v160006INS_16reverse_iteratorIPP4NodeEES5_NS_18__unwrap_iter_implIS5_Lb0EEEEET_S8_T0_, symObjAddr: 0x58CC, symBinAddr: 0x100009908, symSize: 0x88 }
  - { offsetInCU: 0x9033, offset: 0x9033, size: 0x8, addend: 0x0, symName: __ZNSt3__119__allocate_at_leastB7v160006INS_9allocatorIiEEEENS_19__allocation_resultINS_16allocator_traitsIT_E7pointerEEERS5_m, symObjAddr: 0x63D0, symBinAddr: 0x10000A40C, symSize: 0x40 }
  - { offsetInCU: 0x9076, offset: 0x9076, size: 0x8, addend: 0x0, symName: __ZNSt3__142__uninitialized_allocator_move_if_noexceptB7v160006INS_9allocatorIiEENS_16reverse_iteratorIPiEES5_ivEET1_RT_T0_S9_S6_, symObjAddr: 0x65B0, symBinAddr: 0x10000A5EC, symSize: 0xE8 }
  - { offsetInCU: 0x90F3, offset: 0x90F3, size: 0x8, addend: 0x0, symName: __ZNSt3__14swapB7v160006IPiEEvRT_S3_, symObjAddr: 0x66E4, symBinAddr: 0x10000A720, symSize: 0x3C }
  - { offsetInCU: 0x9144, offset: 0x9144, size: 0x8, addend: 0x0, symName: __ZNSt3__125__debug_db_invalidate_allB7v160006INS_6vectorIiNS_9allocatorIiEEEEEEvPT_, symObjAddr: 0x67CC, symBinAddr: 0x10000A808, symSize: 0x10 }
  - { offsetInCU: 0x9175, offset: 0x9175, size: 0x8, addend: 0x0, symName: __ZNSt3__1neB7v160006IPiS1_EEbRKNS_16reverse_iteratorIT_EERKNS2_IT0_EE, symObjAddr: 0x67DC, symBinAddr: 0x10000A818, symSize: 0x48 }
  - { offsetInCU: 0x91E6, offset: 0x91E6, size: 0x8, addend: 0x0, symName: __ZNSt3__114__construct_atB7v160006IiJiEPiEEPT_S3_DpOT0_, symObjAddr: 0x6824, symBinAddr: 0x10000A860, symSize: 0x2C }
  - { offsetInCU: 0x9256, offset: 0x9256, size: 0x8, addend: 0x0, symName: __ZNSt3__112__to_addressB7v160006INS_16reverse_iteratorIPiEEvEENS_5decayIDTclsr19__to_address_helperIT_EE6__callclsr3stdE7declvalIRKS5_EEEEE4typeES7_, symObjAddr: 0x6850, symBinAddr: 0x10000A88C, symSize: 0x24 }
  - { offsetInCU: 0x928C, offset: 0x928C, size: 0x8, addend: 0x0, symName: __ZNSt3__14moveB7v160006INS_16reverse_iteratorIPiEES3_EET0_T_S5_S4_, symObjAddr: 0x68BC, symBinAddr: 0x10000A8F8, symSize: 0x78 }
  - { offsetInCU: 0x930F, offset: 0x930F, size: 0x8, addend: 0x0, symName: __ZNSt3__16__moveB7v160006INS_17_ClassicAlgPolicyENS_16reverse_iteratorIPiEES4_S4_EENS_4pairIT0_T2_EES6_T1_S7_, symObjAddr: 0x69A4, symBinAddr: 0x10000A9E0, symSize: 0x64 }
  - { offsetInCU: 0x937B, offset: 0x937B, size: 0x8, addend: 0x0, symName: __ZNSt3__123__dispatch_copy_or_moveB7v160006INS_17_ClassicAlgPolicyENS_11__move_loopIS1_EENS_14__move_trivialENS_16reverse_iteratorIPiEES7_S7_EENS_4pairIT2_T4_EES9_T3_SA_, symObjAddr: 0x6A08, symBinAddr: 0x10000AA44, symSize: 0x7C }
  - { offsetInCU: 0x93F9, offset: 0x93F9, size: 0x8, addend: 0x0, symName: __ZNSt3__121__unwrap_and_dispatchB7v160006INS_10__overloadINS_11__move_loopINS_17_ClassicAlgPolicyEEENS_14__move_trivialEEENS_16reverse_iteratorIPiEES9_S9_Li0EEENS_4pairIT0_T2_EESB_T1_SC_, symObjAddr: 0x6A84, symBinAddr: 0x10000AAC0, symSize: 0x12C }
  - { offsetInCU: 0x9489, offset: 0x9489, size: 0x8, addend: 0x0, symName: __ZNSt3__114__unwrap_rangeB7v160006INS_16reverse_iteratorIPiEES3_EENS_4pairIT0_S5_EET_S7_, symObjAddr: 0x6BB0, symBinAddr: 0x10000ABEC, symSize: 0x84 }
  - { offsetInCU: 0x9582, offset: 0x9582, size: 0x8, addend: 0x0, symName: __ZNSt3__113__unwrap_iterB7v160006INS_16reverse_iteratorIPiEENS_18__unwrap_iter_implIS3_Lb0EEELi0EEEDTclsrT0_8__unwrapclsr3stdE7declvalIT_EEEES7_, symObjAddr: 0x6CD4, symBinAddr: 0x10000AD10, symSize: 0x44 }
  - { offsetInCU: 0x95C6, offset: 0x95C6, size: 0x8, addend: 0x0, symName: __ZNSt3__19make_pairB7v160006INS_16reverse_iteratorIPiEES3_EENS_4pairINS_18__unwrap_ref_decayIT_E4typeENS5_IT0_E4typeEEEOS6_OS9_, symObjAddr: 0x6D18, symBinAddr: 0x10000AD54, symSize: 0x38 }
  - { offsetInCU: 0x9615, offset: 0x9615, size: 0x8, addend: 0x0, symName: __ZNSt3__114__rewrap_rangeB7v160006INS_16reverse_iteratorIPiEES3_EET_S4_T0_, symObjAddr: 0x6D50, symBinAddr: 0x10000AD8C, symSize: 0x5C }
  - { offsetInCU: 0x9661, offset: 0x9661, size: 0x8, addend: 0x0, symName: __ZNSt3__113__rewrap_iterB7v160006INS_16reverse_iteratorIPiEES3_NS_18__unwrap_iter_implIS3_Lb0EEEEET_S6_T0_, symObjAddr: 0x6DAC, symBinAddr: 0x10000ADE8, symSize: 0x88 }
  - { offsetInCU: 0x9722, offset: 0x9722, size: 0x8, addend: 0x0, symName: __ZNSt3__1eqB7v160006IPP4NodeEEbRKNS_11__wrap_iterIT_EES8_, symObjAddr: 0x71D0, symBinAddr: 0x10000B20C, symSize: 0x48 }
  - { offsetInCU: 0x9980, offset: 0x9980, size: 0x8, addend: 0x0, symName: __ZSt28__throw_bad_array_new_lengthB7v160006v, symObjAddr: 0x4FEC, symBinAddr: 0x100009028, symSize: 0x34 }
  - { offsetInCU: 0xA263, offset: 0xA263, size: 0x8, addend: 0x0, symName: __ZNSt3__16vectorIP4NodeNS_9allocatorIS2_EEE26__swap_out_circular_bufferERNS_14__split_bufferIS2_RS4_EE, symObjAddr: 0x48C0, symBinAddr: 0x1000088FC, symSize: 0x118 }
  - { offsetInCU: 0xA2B8, offset: 0xA2B8, size: 0x8, addend: 0x0, symName: __ZNSt3__16vectorIiNS_9allocatorIiEEE26__swap_out_circular_bufferERNS_14__split_bufferIiRS2_EE, symObjAddr: 0x6054, symBinAddr: 0x10000A090, symSize: 0x118 }
  - { offsetInCU: 0xC4F2, offset: 0xC4F2, size: 0x8, addend: 0x0, symName: __ZlsRNSt3__113basic_ostreamIcNS_11char_traitsIcEEEERK3Vec, symObjAddr: 0x0, symBinAddr: 0x10000403C, symSize: 0x64 }
  - { offsetInCU: 0xC52C, offset: 0xC52C, size: 0x8, addend: 0x0, symName: __ZlsRNSt3__113basic_ostreamIcNS_11char_traitsIcEEEERK9GameState, symObjAddr: 0xAC, symBinAddr: 0x1000040E8, symSize: 0x2D0 }
  - { offsetInCU: 0xC616, offset: 0xC616, size: 0x8, addend: 0x0, symName: __ZNSt3__113basic_ostreamIcNS_11char_traitsIcEEElsB7v160006EPFRS3_S4_E, symObjAddr: 0x37C, symBinAddr: 0x1000043B8, symSize: 0x2C }
  - { offsetInCU: 0xC648, offset: 0xC648, size: 0x8, addend: 0x0, symName: __Z9validMove9GameState, symObjAddr: 0x434, symBinAddr: 0x100004470, symSize: 0xE4 }
  - { offsetInCU: 0xC6B0, offset: 0xC6B0, size: 0x8, addend: 0x0, symName: __ZN3VecC1Eii, symObjAddr: 0x518, symBinAddr: 0x100004554, symSize: 0x3C }
  - { offsetInCU: 0xC6F5, offset: 0xC6F5, size: 0x8, addend: 0x0, symName: __Z8addChildP4NodeS0_, symObjAddr: 0x554, symBinAddr: 0x100004590, symSize: 0x34 }
  - { offsetInCU: 0xC72B, offset: 0xC72B, size: 0x8, addend: 0x0, symName: __ZNSt3__16vectorIP4NodeNS_9allocatorIS2_EEE9push_backB7v160006ERKS2_, symObjAddr: 0x588, symBinAddr: 0x1000045C4, symSize: 0x6C }
  - { offsetInCU: 0xC760, offset: 0xC760, size: 0x8, addend: 0x0, symName: __Z8populateP4Nodei, symObjAddr: 0x5F4, symBinAddr: 0x100004630, symSize: 0x254 }
  - { offsetInCU: 0xC7E6, offset: 0xC7E6, size: 0x8, addend: 0x0, symName: __ZN9GameState6hasWonEi, symObjAddr: 0x848, symBinAddr: 0x100004884, symSize: 0x354 }
  - { offsetInCU: 0xC91E, offset: 0xC91E, size: 0x8, addend: 0x0, symName: __ZN9GameStateC1ERKS_, symObjAddr: 0xB9C, symBinAddr: 0x100004BD8, symSize: 0x34 }
  - { offsetInCU: 0xC955, offset: 0xC955, size: 0x8, addend: 0x0, symName: __ZN9GameState4playEii, symObjAddr: 0xBD0, symBinAddr: 0x100004C0C, symSize: 0x140 }
  - { offsetInCU: 0xC996, offset: 0xC996, size: 0x8, addend: 0x0, symName: __ZN4NodeC1E9GameState, symObjAddr: 0xD10, symBinAddr: 0x100004D4C, symSize: 0x34 }
  - { offsetInCU: 0xC9CE, offset: 0xC9CE, size: 0x8, addend: 0x0, symName: __ZN9GameStateD1Ev, symObjAddr: 0xD44, symBinAddr: 0x100004D80, symSize: 0x2C }
  - { offsetInCU: 0xC9F6, offset: 0xC9F6, size: 0x8, addend: 0x0, symName: __ZNSt3__16vectorIiNS_9allocatorIiEEE9push_backB7v160006ERKi, symObjAddr: 0xD7C, symBinAddr: 0x100004DB8, symSize: 0x6C }
  - { offsetInCU: 0xCA2B, offset: 0xCA2B, size: 0x8, addend: 0x0, symName: __Z13findMinHeightP4Nodei, symObjAddr: 0xDE8, symBinAddr: 0x100004E24, symSize: 0x17C }
  - { offsetInCU: 0xCAE4, offset: 0xCAE4, size: 0x8, addend: 0x0, symName: __ZNKSt3__16vectorIP4NodeNS_9allocatorIS2_EEE5emptyB7v160006Ev, symObjAddr: 0xF64, symBinAddr: 0x100004FA0, symSize: 0x28 }
  - { offsetInCU: 0xCB08, offset: 0xCB08, size: 0x8, addend: 0x0, symName: __ZNSt3__16vectorIP4NodeNS_9allocatorIS2_EEE5beginB7v160006Ev, symObjAddr: 0xF8C, symBinAddr: 0x100004FC8, symSize: 0x30 }
  - { offsetInCU: 0xCB2E, offset: 0xCB2E, size: 0x8, addend: 0x0, symName: __ZNSt3__16vectorIP4NodeNS_9allocatorIS2_EEE3endB7v160006Ev, symObjAddr: 0xFBC, symBinAddr: 0x100004FF8, symSize: 0x30 }
  - { offsetInCU: 0xCB55, offset: 0xCB55, size: 0x8, addend: 0x0, symName: __ZNKSt3__111__wrap_iterIPP4NodeEdeB7v160006Ev, symObjAddr: 0x1020, symBinAddr: 0x10000505C, symSize: 0x18 }
  - { offsetInCU: 0xCB7A, offset: 0xCB7A, size: 0x8, addend: 0x0, symName: __ZNSt3__111__wrap_iterIPP4NodeEppB7v160006Ev, symObjAddr: 0x1038, symBinAddr: 0x100005074, symSize: 0x20 }
  - { offsetInCU: 0xCB9E, offset: 0xCB9E, size: 0x8, addend: 0x0, symName: __Z6aiMoveP4Nodei, symObjAddr: 0x1058, symBinAddr: 0x100005094, symSize: 0x70 }
  - { offsetInCU: 0xCBF5, offset: 0xCBF5, size: 0x8, addend: 0x0, symName: __ZNSt3__16vectorIiNS_9allocatorIiEEEixB7v160006Em, symObjAddr: 0x10C8, symBinAddr: 0x100005104, symSize: 0x24 }
  - { offsetInCU: 0xCC2A, offset: 0xCC2A, size: 0x8, addend: 0x0, symName: __Z2p29GameState, symObjAddr: 0x10EC, symBinAddr: 0x100005128, symSize: 0x1AC }
  - { offsetInCU: 0xCC82, offset: 0xCC82, size: 0x8, addend: 0x0, symName: __Z3p1w9GameState, symObjAddr: 0x1298, symBinAddr: 0x1000052D4, symSize: 0x190 }
  - { offsetInCU: 0xCCE5, offset: 0xCCE5, size: 0x8, addend: 0x0, symName: __Z3p1s9GameState, symObjAddr: 0x1428, symBinAddr: 0x100005464, symSize: 0x2E0 }
  - { offsetInCU: 0xCD75, offset: 0xCD75, size: 0x8, addend: 0x0, symName: __ZlsRNSt3__113basic_ostreamIcNS_11char_traitsIcEEEER8mainMenu, symObjAddr: 0x1708, symBinAddr: 0x100005744, symSize: 0x168 }
  - { offsetInCU: 0xCDB2, offset: 0xCDB2, size: 0x8, addend: 0x0, symName: __Z7theMenu8mainMenu, symObjAddr: 0x1870, symBinAddr: 0x1000058AC, symSize: 0x50 }
  - { offsetInCU: 0xCDEE, offset: 0xCDEE, size: 0x8, addend: 0x0, symName: _main, symObjAddr: 0x18C0, symBinAddr: 0x1000058FC, symSize: 0x208 }
  - { offsetInCU: 0xCE34, offset: 0xCE34, size: 0x8, addend: 0x0, symName: __ZN9GameStateC1Ev, symObjAddr: 0x1AC8, symBinAddr: 0x100005B04, symSize: 0x2C }
  - { offsetInCU: 0xD172, offset: 0xD172, size: 0x8, addend: 0x0, symName: __ZN8mainMenuC1Ev, symObjAddr: 0x1AF4, symBinAddr: 0x100005B30, symSize: 0x2C }
  - { offsetInCU: 0xD19B, offset: 0xD19B, size: 0x8, addend: 0x0, symName: __ZN8mainMenu11runGameTypeEiR9GameState, symObjAddr: 0x1B20, symBinAddr: 0x100005B5C, symSize: 0x244 }
  - { offsetInCU: 0xD1DC, offset: 0xD1DC, size: 0x8, addend: 0x0, symName: __ZN3VecC2Eii, symObjAddr: 0x1D7C, symBinAddr: 0x100005DB8, symSize: 0x2C }
  - { offsetInCU: 0xD221, offset: 0xD221, size: 0x8, addend: 0x0, symName: __ZN9GameStateC2ERKS_, symObjAddr: 0x1DA8, symBinAddr: 0x100005DE4, symSize: 0x194 }
  - { offsetInCU: 0xD292, offset: 0xD292, size: 0x8, addend: 0x0, symName: __ZN3VecC1Ev, symObjAddr: 0x1F3C, symBinAddr: 0x100005F78, symSize: 0x2C }
  - { offsetInCU: 0xD2BB, offset: 0xD2BB, size: 0x8, addend: 0x0, symName: __ZN3VecC2Ev, symObjAddr: 0x1F68, symBinAddr: 0x100005FA4, symSize: 0x1C }
  - { offsetInCU: 0xD2E4, offset: 0xD2E4, size: 0x8, addend: 0x0, symName: __ZN3Vec3setEii, symObjAddr: 0x1F84, symBinAddr: 0x100005FC0, symSize: 0x2C }
  - { offsetInCU: 0xD325, offset: 0xD325, size: 0x8, addend: 0x0, symName: __ZN4NodeC2E9GameState, symObjAddr: 0x1FB0, symBinAddr: 0x100005FEC, symSize: 0x10C }
  - { offsetInCU: 0xD35D, offset: 0xD35D, size: 0x8, addend: 0x0, symName: __ZNSt3__16vectorIP4NodeNS_9allocatorIS2_EEEC1B7v160006Ev, symObjAddr: 0x20BC, symBinAddr: 0x1000060F8, symSize: 0x2C }
  - { offsetInCU: 0xD386, offset: 0xD386, size: 0x8, addend: 0x0, symName: __ZNSt3__16vectorIiNS_9allocatorIiEEEC1B7v160006Ev, symObjAddr: 0x20E8, symBinAddr: 0x100006124, symSize: 0x2C }
  - { offsetInCU: 0xD3AF, offset: 0xD3AF, size: 0x8, addend: 0x0, symName: __ZN9GameStateaSERKS_, symObjAddr: 0x2114, symBinAddr: 0x100006150, symSize: 0x2D8 }
  - { offsetInCU: 0xD473, offset: 0xD473, size: 0x8, addend: 0x0, symName: __ZNSt3__16vectorIiNS_9allocatorIiEEED1B7v160006Ev, symObjAddr: 0x23EC, symBinAddr: 0x100006428, symSize: 0x2C }
  - { offsetInCU: 0xD49C, offset: 0xD49C, size: 0x8, addend: 0x0, symName: __ZNSt3__16vectorIP4NodeNS_9allocatorIS2_EEED1B7v160006Ev, symObjAddr: 0x2418, symBinAddr: 0x100006454, symSize: 0x2C }
  - { offsetInCU: 0xD4C5, offset: 0xD4C5, size: 0x8, addend: 0x0, symName: __ZNSt3__16vectorIP4NodeNS_9allocatorIS2_EEEC2B7v160006Ev, symObjAddr: 0x2444, symBinAddr: 0x100006480, symSize: 0x4C }
  - { offsetInCU: 0xD4F8, offset: 0xD4F8, size: 0x8, addend: 0x0, symName: __ZNSt3__117__compressed_pairIPP4NodeNS_9allocatorIS2_EEEC1B7v160006IDnNS_18__default_init_tagEEEOT_OT0_, symObjAddr: 0x2490, symBinAddr: 0x1000064CC, symSize: 0x3C }
  - { offsetInCU: 0xD54F, offset: 0xD54F, size: 0x8, addend: 0x0, symName: __ZNSt3__117__compressed_pairIPP4NodeNS_9allocatorIS2_EEEC2B7v160006IDnNS_18__default_init_tagEEEOT_OT0_, symObjAddr: 0x24DC, symBinAddr: 0x100006518, symSize: 0x40 }
  - { offsetInCU: 0xD5A6, offset: 0xD5A6, size: 0x8, addend: 0x0, symName: __ZNSt3__122__compressed_pair_elemIPP4NodeLi0ELb0EEC2B7v160006IDnvEEOT_, symObjAddr: 0x251C, symBinAddr: 0x100006558, symSize: 0x1C }
  - { offsetInCU: 0xD5E7, offset: 0xD5E7, size: 0x8, addend: 0x0, symName: __ZNSt3__122__compressed_pair_elemINS_9allocatorIP4NodeEELi1ELb1EEC2B7v160006ENS_18__default_init_tagE, symObjAddr: 0x2538, symBinAddr: 0x100006574, symSize: 0x2C }
  - { offsetInCU: 0xD61B, offset: 0xD61B, size: 0x8, addend: 0x0, symName: __ZNSt3__19allocatorIP4NodeEC2B7v160006Ev, symObjAddr: 0x2564, symBinAddr: 0x1000065A0, symSize: 0x2C }
  - { offsetInCU: 0xD644, offset: 0xD644, size: 0x8, addend: 0x0, symName: __ZNSt3__116__non_trivial_ifILb1ENS_9allocatorIP4NodeEEEC2B7v160006Ev, symObjAddr: 0x2590, symBinAddr: 0x1000065CC, symSize: 0x14 }
  - { offsetInCU: 0xD66D, offset: 0xD66D, size: 0x8, addend: 0x0, symName: __ZNSt3__16vectorIiNS_9allocatorIiEEEC2B7v160006Ev, symObjAddr: 0x25A4, symBinAddr: 0x1000065E0, symSize: 0x4C }
  - { offsetInCU: 0xD696, offset: 0xD696, size: 0x8, addend: 0x0, symName: __ZNSt3__117__compressed_pairIPiNS_9allocatorIiEEEC1B7v160006IDnNS_18__default_init_tagEEEOT_OT0_, symObjAddr: 0x25F0, symBinAddr: 0x10000662C, symSize: 0x3C }
  - { offsetInCU: 0xD6ED, offset: 0xD6ED, size: 0x8, addend: 0x0, symName: __ZNSt3__117__compressed_pairIPiNS_9allocatorIiEEEC2B7v160006IDnNS_18__default_init_tagEEEOT_OT0_, symObjAddr: 0x263C, symBinAddr: 0x100006678, symSize: 0x40 }
  - { offsetInCU: 0xD744, offset: 0xD744, size: 0x8, addend: 0x0, symName: __ZNSt3__122__compressed_pair_elemIPiLi0ELb0EEC2B7v160006IDnvEEOT_, symObjAddr: 0x267C, symBinAddr: 0x1000066B8, symSize: 0x1C }
  - { offsetInCU: 0xD785, offset: 0xD785, size: 0x8, addend: 0x0, symName: __ZNSt3__122__compressed_pair_elemINS_9allocatorIiEELi1ELb1EEC2B7v160006ENS_18__default_init_tagE, symObjAddr: 0x2698, symBinAddr: 0x1000066D4, symSize: 0x2C }
  - { offsetInCU: 0xD7B9, offset: 0xD7B9, size: 0x8, addend: 0x0, symName: __ZNSt3__19allocatorIiEC2B7v160006Ev, symObjAddr: 0x26C4, symBinAddr: 0x100006700, symSize: 0x2C }
  - { offsetInCU: 0xD7E2, offset: 0xD7E2, size: 0x8, addend: 0x0, symName: __ZNSt3__116__non_trivial_ifILb1ENS_9allocatorIiEEEC2B7v160006Ev, symObjAddr: 0x26F0, symBinAddr: 0x10000672C, symSize: 0x14 }
  - { offsetInCU: 0xD80B, offset: 0xD80B, size: 0x8, addend: 0x0, symName: __ZNSt3__16vectorIiNS_9allocatorIiEEED2B7v160006Ev, symObjAddr: 0x2704, symBinAddr: 0x100006740, symSize: 0x3C }
  - { offsetInCU: 0xD834, offset: 0xD834, size: 0x8, addend: 0x0, symName: __ZNSt3__16vectorIiNS_9allocatorIiEEE16__destroy_vectorC1ERS3_, symObjAddr: 0x2740, symBinAddr: 0x10000677C, symSize: 0x34 }
  - { offsetInCU: 0xD86C, offset: 0xD86C, size: 0x8, addend: 0x0, symName: __ZNSt3__16vectorIiNS_9allocatorIiEEE16__destroy_vectorclB7v160006Ev, symObjAddr: 0x2774, symBinAddr: 0x1000067B0, symSize: 0x9C }
  - { offsetInCU: 0xD891, offset: 0xD891, size: 0x8, addend: 0x0, symName: __ZNSt3__16vectorIiNS_9allocatorIiEEE16__destroy_vectorC2ERS3_, symObjAddr: 0x2810, symBinAddr: 0x10000684C, symSize: 0x20 }
  - { offsetInCU: 0xD8C9, offset: 0xD8C9, size: 0x8, addend: 0x0, symName: __ZNKSt3__16vectorIiNS_9allocatorIiEEE17__annotate_deleteB7v160006Ev, symObjAddr: 0x2830, symBinAddr: 0x10000686C, symSize: 0xB8 }
  - { offsetInCU: 0xD8EE, offset: 0xD8EE, size: 0x8, addend: 0x0, symName: __ZNSt3__16vectorIiNS_9allocatorIiEEE7__clearB7v160006Ev, symObjAddr: 0x28F8, symBinAddr: 0x100006934, symSize: 0x28 }
  - { offsetInCU: 0xD913, offset: 0xD913, size: 0x8, addend: 0x0, symName: __ZNSt3__116allocator_traitsINS_9allocatorIiEEE10deallocateB7v160006ERS2_Pim, symObjAddr: 0x2920, symBinAddr: 0x10000695C, symSize: 0x34 }
  - { offsetInCU: 0xD955, offset: 0xD955, size: 0x8, addend: 0x0, symName: __ZNSt3__16vectorIiNS_9allocatorIiEEE7__allocB7v160006Ev, symObjAddr: 0x2954, symBinAddr: 0x100006990, symSize: 0x28 }
  - { offsetInCU: 0xD97A, offset: 0xD97A, size: 0x8, addend: 0x0, symName: __ZNKSt3__16vectorIiNS_9allocatorIiEEE8capacityB7v160006Ev, symObjAddr: 0x297C, symBinAddr: 0x1000069B8, symSize: 0x40 }
  - { offsetInCU: 0xD99F, offset: 0xD99F, size: 0x8, addend: 0x0, symName: __ZNKSt3__16vectorIiNS_9allocatorIiEEE31__annotate_contiguous_containerB7v160006EPKvS5_S5_S5_, symObjAddr: 0x29BC, symBinAddr: 0x1000069F8, symSize: 0x20 }
  - { offsetInCU: 0xD9F0, offset: 0xD9F0, size: 0x8, addend: 0x0, symName: __ZNKSt3__16vectorIiNS_9allocatorIiEEE4dataB7v160006Ev, symObjAddr: 0x29DC, symBinAddr: 0x100006A18, symSize: 0x28 }
  - { offsetInCU: 0xDA15, offset: 0xDA15, size: 0x8, addend: 0x0, symName: __ZNKSt3__16vectorIiNS_9allocatorIiEEE4sizeB7v160006Ev, symObjAddr: 0x2A04, symBinAddr: 0x100006A40, symSize: 0x28 }
  - { offsetInCU: 0xDA3A, offset: 0xDA3A, size: 0x8, addend: 0x0, symName: __ZNSt3__16vectorIiNS_9allocatorIiEEE22__base_destruct_at_endB7v160006EPi, symObjAddr: 0x2A40, symBinAddr: 0x100006A7C, symSize: 0xA0 }
  - { offsetInCU: 0xDA7D, offset: 0xDA7D, size: 0x8, addend: 0x0, symName: __ZNSt3__116allocator_traitsINS_9allocatorIiEEE7destroyB7v160006IivEEvRS2_PT_, symObjAddr: 0x2AE0, symBinAddr: 0x100006B1C, symSize: 0x2C }
  - { offsetInCU: 0xDABA, offset: 0xDABA, size: 0x8, addend: 0x0, symName: __ZNSt3__19allocatorIiE7destroyB7v160006EPi, symObjAddr: 0x2B0C, symBinAddr: 0x100006B48, symSize: 0x14 }
  - { offsetInCU: 0xDAED, offset: 0xDAED, size: 0x8, addend: 0x0, symName: __ZNSt3__19allocatorIiE10deallocateB7v160006EPim, symObjAddr: 0x2B20, symBinAddr: 0x100006B5C, symSize: 0x70 }
  - { offsetInCU: 0xDB2E, offset: 0xDB2E, size: 0x8, addend: 0x0, symName: __ZNSt3__117__compressed_pairIPiNS_9allocatorIiEEE6secondB7v160006Ev, symObjAddr: 0x2C18, symBinAddr: 0x100006C54, symSize: 0x24 }
  - { offsetInCU: 0xDB53, offset: 0xDB53, size: 0x8, addend: 0x0, symName: __ZNSt3__122__compressed_pair_elemINS_9allocatorIiEELi1ELb1EE5__getB7v160006Ev, symObjAddr: 0x2C3C, symBinAddr: 0x100006C78, symSize: 0x14 }
  - { offsetInCU: 0xDB78, offset: 0xDB78, size: 0x8, addend: 0x0, symName: __ZNKSt3__16vectorIiNS_9allocatorIiEEE9__end_capB7v160006Ev, symObjAddr: 0x2C50, symBinAddr: 0x100006C8C, symSize: 0x28 }
  - { offsetInCU: 0xDB9D, offset: 0xDB9D, size: 0x8, addend: 0x0, symName: __ZNKSt3__117__compressed_pairIPiNS_9allocatorIiEEE5firstB7v160006Ev, symObjAddr: 0x2C78, symBinAddr: 0x100006CB4, symSize: 0x24 }
  - { offsetInCU: 0xDBC2, offset: 0xDBC2, size: 0x8, addend: 0x0, symName: __ZNKSt3__122__compressed_pair_elemIPiLi0ELb0EE5__getB7v160006Ev, symObjAddr: 0x2C9C, symBinAddr: 0x100006CD8, symSize: 0x14 }
  - { offsetInCU: 0xDBE7, offset: 0xDBE7, size: 0x8, addend: 0x0, symName: __ZNSt3__16vectorIP4NodeNS_9allocatorIS2_EEED2B7v160006Ev, symObjAddr: 0x2CB0, symBinAddr: 0x100006CEC, symSize: 0x3C }
  - { offsetInCU: 0xDC10, offset: 0xDC10, size: 0x8, addend: 0x0, symName: __ZNSt3__16vectorIP4NodeNS_9allocatorIS2_EEE16__destroy_vectorC1ERS5_, symObjAddr: 0x2CEC, symBinAddr: 0x100006D28, symSize: 0x34 }
  - { offsetInCU: 0xDC48, offset: 0xDC48, size: 0x8, addend: 0x0, symName: __ZNSt3__16vectorIP4NodeNS_9allocatorIS2_EEE16__destroy_vectorclB7v160006Ev, symObjAddr: 0x2D20, symBinAddr: 0x100006D5C, symSize: 0x9C }
  - { offsetInCU: 0xDC6D, offset: 0xDC6D, size: 0x8, addend: 0x0, symName: __ZNSt3__16vectorIP4NodeNS_9allocatorIS2_EEE16__destroy_vectorC2ERS5_, symObjAddr: 0x2DBC, symBinAddr: 0x100006DF8, symSize: 0x20 }
  - { offsetInCU: 0xDCA5, offset: 0xDCA5, size: 0x8, addend: 0x0, symName: __ZNKSt3__16vectorIP4NodeNS_9allocatorIS2_EEE17__annotate_deleteB7v160006Ev, symObjAddr: 0x2DDC, symBinAddr: 0x100006E18, symSize: 0xB8 }
  - { offsetInCU: 0xDCCA, offset: 0xDCCA, size: 0x8, addend: 0x0, symName: __ZNSt3__16vectorIP4NodeNS_9allocatorIS2_EEE7__clearB7v160006Ev, symObjAddr: 0x2EA4, symBinAddr: 0x100006EE0, symSize: 0x28 }
  - { offsetInCU: 0xDCEF, offset: 0xDCEF, size: 0x8, addend: 0x0, symName: __ZNSt3__116allocator_traitsINS_9allocatorIP4NodeEEE10deallocateB7v160006ERS4_PS3_m, symObjAddr: 0x2ECC, symBinAddr: 0x100006F08, symSize: 0x34 }
  - { offsetInCU: 0xDD31, offset: 0xDD31, size: 0x8, addend: 0x0, symName: __ZNSt3__16vectorIP4NodeNS_9allocatorIS2_EEE7__allocB7v160006Ev, symObjAddr: 0x2F00, symBinAddr: 0x100006F3C, symSize: 0x28 }
  - { offsetInCU: 0xDD56, offset: 0xDD56, size: 0x8, addend: 0x0, symName: __ZNKSt3__16vectorIP4NodeNS_9allocatorIS2_EEE8capacityB7v160006Ev, symObjAddr: 0x2F28, symBinAddr: 0x100006F64, symSize: 0x40 }
  - { offsetInCU: 0xDD7B, offset: 0xDD7B, size: 0x8, addend: 0x0, symName: __ZNKSt3__16vectorIP4NodeNS_9allocatorIS2_EEE31__annotate_contiguous_containerB7v160006EPKvS7_S7_S7_, symObjAddr: 0x2F68, symBinAddr: 0x100006FA4, symSize: 0x20 }
  - { offsetInCU: 0xDDCC, offset: 0xDDCC, size: 0x8, addend: 0x0, symName: __ZNKSt3__16vectorIP4NodeNS_9allocatorIS2_EEE4dataB7v160006Ev, symObjAddr: 0x2F88, symBinAddr: 0x100006FC4, symSize: 0x28 }
  - { offsetInCU: 0xDDF1, offset: 0xDDF1, size: 0x8, addend: 0x0, symName: __ZNKSt3__16vectorIP4NodeNS_9allocatorIS2_EEE4sizeB7v160006Ev, symObjAddr: 0x2FB0, symBinAddr: 0x100006FEC, symSize: 0x28 }
  - { offsetInCU: 0xDE16, offset: 0xDE16, size: 0x8, addend: 0x0, symName: __ZNSt3__16vectorIP4NodeNS_9allocatorIS2_EEE22__base_destruct_at_endB7v160006EPS2_, symObjAddr: 0x2FEC, symBinAddr: 0x100007028, symSize: 0xA0 }
  - { offsetInCU: 0xDE59, offset: 0xDE59, size: 0x8, addend: 0x0, symName: __ZNSt3__116allocator_traitsINS_9allocatorIP4NodeEEE7destroyB7v160006IS3_vEEvRS4_PT_, symObjAddr: 0x308C, symBinAddr: 0x1000070C8, symSize: 0x2C }
  - { offsetInCU: 0xDE96, offset: 0xDE96, size: 0x8, addend: 0x0, symName: __ZNSt3__19allocatorIP4NodeE7destroyB7v160006EPS2_, symObjAddr: 0x30B8, symBinAddr: 0x1000070F4, symSize: 0x14 }
  - { offsetInCU: 0xDEC9, offset: 0xDEC9, size: 0x8, addend: 0x0, symName: __ZNSt3__19allocatorIP4NodeE10deallocateB7v160006EPS2_m, symObjAddr: 0x30CC, symBinAddr: 0x100007108, symSize: 0x70 }
  - { offsetInCU: 0xDF0A, offset: 0xDF0A, size: 0x8, addend: 0x0, symName: __ZNSt3__117__compressed_pairIPP4NodeNS_9allocatorIS2_EEE6secondB7v160006Ev, symObjAddr: 0x313C, symBinAddr: 0x100007178, symSize: 0x24 }
  - { offsetInCU: 0xDF2F, offset: 0xDF2F, size: 0x8, addend: 0x0, symName: __ZNSt3__122__compressed_pair_elemINS_9allocatorIP4NodeEELi1ELb1EE5__getB7v160006Ev, symObjAddr: 0x3160, symBinAddr: 0x10000719C, symSize: 0x14 }
  - { offsetInCU: 0xDF54, offset: 0xDF54, size: 0x8, addend: 0x0, symName: __ZNKSt3__16vectorIP4NodeNS_9allocatorIS2_EEE9__end_capB7v160006Ev, symObjAddr: 0x3174, symBinAddr: 0x1000071B0, symSize: 0x28 }
  - { offsetInCU: 0xDF79, offset: 0xDF79, size: 0x8, addend: 0x0, symName: __ZNKSt3__117__compressed_pairIPP4NodeNS_9allocatorIS2_EEE5firstB7v160006Ev, symObjAddr: 0x319C, symBinAddr: 0x1000071D8, symSize: 0x24 }
  - { offsetInCU: 0xDF9E, offset: 0xDF9E, size: 0x8, addend: 0x0, symName: __ZNKSt3__122__compressed_pair_elemIPP4NodeLi0ELb0EE5__getB7v160006Ev, symObjAddr: 0x31C0, symBinAddr: 0x1000071FC, symSize: 0x14 }
  - { offsetInCU: 0xDFC3, offset: 0xDFC3, size: 0x8, addend: 0x0, symName: __ZN9GameStateD2Ev, symObjAddr: 0x31D4, symBinAddr: 0x100007210, symSize: 0xBC }
  - { offsetInCU: 0xE009, offset: 0xE009, size: 0x8, addend: 0x0, symName: __ZN9GameStateC2Ev, symObjAddr: 0x3290, symBinAddr: 0x1000072CC, symSize: 0x15C }
  - { offsetInCU: 0xE06C, offset: 0xE06C, size: 0x8, addend: 0x0, symName: __ZN8mainMenuC2Ev, symObjAddr: 0x33EC, symBinAddr: 0x100007428, symSize: 0x48 }
  - { offsetInCU: 0xE095, offset: 0xE095, size: 0x8, addend: 0x0, symName: __ZN8mainMenu15enterToContinueEv, symObjAddr: 0x3434, symBinAddr: 0x100007470, symSize: 0x48 }
  - { offsetInCU: 0xE0BA, offset: 0xE0BA, size: 0x8, addend: 0x0, symName: __ZN8mainMenu9gameStatsEv, symObjAddr: 0x347C, symBinAddr: 0x1000074B8, symSize: 0x370 }
  - { offsetInCU: 0xE0DF, offset: 0xE0DF, size: 0x8, addend: 0x0, symName: __ZN8mainMenu10clearStatsEv, symObjAddr: 0x37EC, symBinAddr: 0x100007828, symSize: 0x78 }
  - { offsetInCU: 0xE104, offset: 0xE104, size: 0x8, addend: 0x0, symName: __ZNSt3__111char_traitsIcE3eofEv, symObjAddr: 0x3864, symBinAddr: 0x1000078A0, symSize: 0x8 }
  - { offsetInCU: 0xE118, offset: 0xE118, size: 0x8, addend: 0x0, symName: __ZN8mainMenu22calculateWinPercentageEv, symObjAddr: 0x386C, symBinAddr: 0x1000078A8, symSize: 0x2C }
  - { offsetInCU: 0xE13D, offset: 0xE13D, size: 0x8, addend: 0x0, symName: __ZN8mainMenu22calculateTiePercentageEv, symObjAddr: 0x3898, symBinAddr: 0x1000078D4, symSize: 0x24 }
  - { offsetInCU: 0xE162, offset: 0xE162, size: 0x8, addend: 0x0, symName: __ZN8mainMenu25calculateWinPercentagePVPEv, symObjAddr: 0x38BC, symBinAddr: 0x1000078F8, symSize: 0x2C }
  - { offsetInCU: 0xE187, offset: 0xE187, size: 0x8, addend: 0x0, symName: __ZN8mainMenu25calculateTiePercentagePVPEv, symObjAddr: 0x38E8, symBinAddr: 0x100007924, symSize: 0x24 }
  - { offsetInCU: 0xE1AC, offset: 0xE1AC, size: 0x8, addend: 0x0, symName: __ZN8mainMenu26calculateWinPercentagePvAIEv, symObjAddr: 0x390C, symBinAddr: 0x100007948, symSize: 0x2C }
  - { offsetInCU: 0xE1D1, offset: 0xE1D1, size: 0x8, addend: 0x0, symName: __ZN8mainMenu26calculateTiePercentagePvAIEv, symObjAddr: 0x3938, symBinAddr: 0x100007974, symSize: 0x24 }
  - { offsetInCU: 0xE1F6, offset: 0xE1F6, size: 0x8, addend: 0x0, symName: __ZNSt3__111char_traitsIcE6lengthEPKc, symObjAddr: 0x3B50, symBinAddr: 0x100007B8C, symSize: 0x48 }
  - { offsetInCU: 0xE237, offset: 0xE237, size: 0x8, addend: 0x0, symName: __ZNKSt3__113basic_ostreamIcNS_11char_traitsIcEEE6sentrycvbB7v160006Ev, symObjAddr: 0x3B98, symBinAddr: 0x100007BD4, symSize: 0x1C }
  - { offsetInCU: 0xE25C, offset: 0xE25C, size: 0x8, addend: 0x0, symName: __ZNSt3__119ostreambuf_iteratorIcNS_11char_traitsIcEEEC1B7v160006ERNS_13basic_ostreamIcS2_EE, symObjAddr: 0x3DFC, symBinAddr: 0x100007E38, symSize: 0x34 }
  - { offsetInCU: 0xE293, offset: 0xE293, size: 0x8, addend: 0x0, symName: __ZNKSt3__18ios_base5flagsB7v160006Ev, symObjAddr: 0x3E30, symBinAddr: 0x100007E6C, symSize: 0x18 }
  - { offsetInCU: 0xE2B9, offset: 0xE2B9, size: 0x8, addend: 0x0, symName: __ZNKSt3__19basic_iosIcNS_11char_traitsIcEEE4fillB7v160006Ev, symObjAddr: 0x3E48, symBinAddr: 0x100007E84, symSize: 0x64 }
  - { offsetInCU: 0xE2E0, offset: 0xE2E0, size: 0x8, addend: 0x0, symName: __ZNKSt3__119ostreambuf_iteratorIcNS_11char_traitsIcEEE6failedB7v160006Ev, symObjAddr: 0x3EAC, symBinAddr: 0x100007EE8, symSize: 0x24 }
  - { offsetInCU: 0xE305, offset: 0xE305, size: 0x8, addend: 0x0, symName: __ZNSt3__19basic_iosIcNS_11char_traitsIcEEE8setstateB7v160006Ej, symObjAddr: 0x3ED0, symBinAddr: 0x100007F0C, symSize: 0x2C }
  - { offsetInCU: 0xE339, offset: 0xE339, size: 0x8, addend: 0x0, symName: __ZNKSt3__18ios_base5widthB7v160006Ev, symObjAddr: 0x3EFC, symBinAddr: 0x100007F38, symSize: 0x18 }
  - { offsetInCU: 0xE360, offset: 0xE360, size: 0x8, addend: 0x0, symName: __ZNSt3__115basic_streambufIcNS_11char_traitsIcEEE5sputnB7v160006EPKcl, symObjAddr: 0x3F14, symBinAddr: 0x100007F50, symSize: 0x3C }
  - { offsetInCU: 0xE3A1, offset: 0xE3A1, size: 0x8, addend: 0x0, symName: __ZNSt3__112basic_stringIcNS_11char_traitsIcEENS_9allocatorIcEEEC1B7v160006Emc, symObjAddr: 0x3F50, symBinAddr: 0x100007F8C, symSize: 0x3C }
  - { offsetInCU: 0xE3E8, offset: 0xE3E8, size: 0x8, addend: 0x0, symName: __ZNKSt3__112basic_stringIcNS_11char_traitsIcEENS_9allocatorIcEEE4dataB7v160006Ev, symObjAddr: 0x3F8C, symBinAddr: 0x100007FC8, symSize: 0x28 }
  - { offsetInCU: 0xE40D, offset: 0xE40D, size: 0x8, addend: 0x0, symName: __ZNSt3__18ios_base5widthB7v160006El, symObjAddr: 0x3FB4, symBinAddr: 0x100007FF0, symSize: 0x2C }
  - { offsetInCU: 0xE452, offset: 0xE452, size: 0x8, addend: 0x0, symName: __ZNSt3__112basic_stringIcNS_11char_traitsIcEENS_9allocatorIcEEEC2B7v160006Emc, symObjAddr: 0x3FE0, symBinAddr: 0x10000801C, symSize: 0x54 }
  - { offsetInCU: 0xE499, offset: 0xE499, size: 0x8, addend: 0x0, symName: __ZNSt3__117__compressed_pairINS_12basic_stringIcNS_11char_traitsIcEENS_9allocatorIcEEE5__repES5_EC1B7v160006INS_18__default_init_tagESA_EEOT_OT0_, symObjAddr: 0x4034, symBinAddr: 0x100008070, symSize: 0x3C }
  - { offsetInCU: 0xE4F0, offset: 0xE4F0, size: 0x8, addend: 0x0, symName: __ZNSt3__117__compressed_pairINS_12basic_stringIcNS_11char_traitsIcEENS_9allocatorIcEEE5__repES5_EC2B7v160006INS_18__default_init_tagESA_EEOT_OT0_, symObjAddr: 0x4080, symBinAddr: 0x1000080BC, symSize: 0x3C }
  - { offsetInCU: 0xE547, offset: 0xE547, size: 0x8, addend: 0x0, symName: __ZNSt3__122__compressed_pair_elemINS_12basic_stringIcNS_11char_traitsIcEENS_9allocatorIcEEE5__repELi0ELb0EEC2B7v160006ENS_18__default_init_tagE, symObjAddr: 0x40BC, symBinAddr: 0x1000080F8, symSize: 0x14 }
  - { offsetInCU: 0xE57B, offset: 0xE57B, size: 0x8, addend: 0x0, symName: __ZNSt3__122__compressed_pair_elemINS_9allocatorIcEELi1ELb1EEC2B7v160006ENS_18__default_init_tagE, symObjAddr: 0x40D0, symBinAddr: 0x10000810C, symSize: 0x2C }
  - { offsetInCU: 0xE5AF, offset: 0xE5AF, size: 0x8, addend: 0x0, symName: __ZNSt3__19allocatorIcEC2B7v160006Ev, symObjAddr: 0x40FC, symBinAddr: 0x100008138, symSize: 0x2C }
  - { offsetInCU: 0xE5D8, offset: 0xE5D8, size: 0x8, addend: 0x0, symName: __ZNSt3__116__non_trivial_ifILb1ENS_9allocatorIcEEEC2B7v160006Ev, symObjAddr: 0x4128, symBinAddr: 0x100008164, symSize: 0x14 }
  - { offsetInCU: 0xE601, offset: 0xE601, size: 0x8, addend: 0x0, symName: __ZNKSt3__112basic_stringIcNS_11char_traitsIcEENS_9allocatorIcEEE13__get_pointerB7v160006Ev, symObjAddr: 0x4150, symBinAddr: 0x10000818C, symSize: 0x54 }
  - { offsetInCU: 0xE626, offset: 0xE626, size: 0x8, addend: 0x0, symName: __ZNKSt3__112basic_stringIcNS_11char_traitsIcEENS_9allocatorIcEEE9__is_longB7v160006Ev, symObjAddr: 0x41A4, symBinAddr: 0x1000081E0, symSize: 0x74 }
  - { offsetInCU: 0xE64B, offset: 0xE64B, size: 0x8, addend: 0x0, symName: __ZNKSt3__112basic_stringIcNS_11char_traitsIcEENS_9allocatorIcEEE18__get_long_pointerB7v160006Ev, symObjAddr: 0x4218, symBinAddr: 0x100008254, symSize: 0x28 }
  - { offsetInCU: 0xE670, offset: 0xE670, size: 0x8, addend: 0x0, symName: __ZNKSt3__112basic_stringIcNS_11char_traitsIcEENS_9allocatorIcEEE19__get_short_pointerB7v160006Ev, symObjAddr: 0x4240, symBinAddr: 0x10000827C, symSize: 0x28 }
  - { offsetInCU: 0xE695, offset: 0xE695, size: 0x8, addend: 0x0, symName: __ZNKSt3__117__compressed_pairINS_12basic_stringIcNS_11char_traitsIcEENS_9allocatorIcEEE5__repES5_E5firstB7v160006Ev, symObjAddr: 0x4268, symBinAddr: 0x1000082A4, symSize: 0x24 }
  - { offsetInCU: 0xE6BA, offset: 0xE6BA, size: 0x8, addend: 0x0, symName: __ZNKSt3__122__compressed_pair_elemINS_12basic_stringIcNS_11char_traitsIcEENS_9allocatorIcEEE5__repELi0ELb0EE5__getB7v160006Ev, symObjAddr: 0x428C, symBinAddr: 0x1000082C8, symSize: 0x14 }
  - { offsetInCU: 0xE6DF, offset: 0xE6DF, size: 0x8, addend: 0x0, symName: __ZNSt3__114pointer_traitsIPKcE10pointer_toB7v160006ERS1_, symObjAddr: 0x42A0, symBinAddr: 0x1000082DC, symSize: 0x14 }
  - { offsetInCU: 0xE702, offset: 0xE702, size: 0x8, addend: 0x0, symName: __ZNSt3__119ostreambuf_iteratorIcNS_11char_traitsIcEEEC2B7v160006ERNS_13basic_ostreamIcS2_EE, symObjAddr: 0x42B4, symBinAddr: 0x1000082F0, symSize: 0x68 }
  - { offsetInCU: 0xE738, offset: 0xE738, size: 0x8, addend: 0x0, symName: __ZNKSt3__19basic_iosIcNS_11char_traitsIcEEE5rdbufB7v160006Ev, symObjAddr: 0x431C, symBinAddr: 0x100008358, symSize: 0x24 }
  - { offsetInCU: 0xE75F, offset: 0xE75F, size: 0x8, addend: 0x0, symName: __ZNKSt3__18ios_base5rdbufB7v160006Ev, symObjAddr: 0x4340, symBinAddr: 0x10000837C, symSize: 0x18 }
  - { offsetInCU: 0xE784, offset: 0xE784, size: 0x8, addend: 0x0, symName: __ZNSt3__111char_traitsIcE11eq_int_typeEii, symObjAddr: 0x4358, symBinAddr: 0x100008394, symSize: 0x28 }
  - { offsetInCU: 0xE7B4, offset: 0xE7B4, size: 0x8, addend: 0x0, symName: __ZNKSt3__19basic_iosIcNS_11char_traitsIcEEE5widenB7v160006Ec, symObjAddr: 0x4380, symBinAddr: 0x1000083BC, symSize: 0x8C }
  - { offsetInCU: 0xE821, offset: 0xE821, size: 0x8, addend: 0x0, symName: __ZNKSt3__15ctypeIcE5widenB7v160006Ec, symObjAddr: 0x4438, symBinAddr: 0x100008474, symSize: 0x38 }
  - { offsetInCU: 0xE854, offset: 0xE854, size: 0x8, addend: 0x0, symName: __ZNSt3__18ios_base8setstateB7v160006Ej, symObjAddr: 0x4470, symBinAddr: 0x1000084AC, symSize: 0x34 }
  - { offsetInCU: 0xE88A, offset: 0xE88A, size: 0x8, addend: 0x0, symName: __ZNSt3__16vectorIP4NodeNS_9allocatorIS2_EEE9__end_capB7v160006Ev, symObjAddr: 0x44C8, symBinAddr: 0x100008504, symSize: 0x28 }
  - { offsetInCU: 0xE8AF, offset: 0xE8AF, size: 0x8, addend: 0x0, symName: __ZNSt3__16vectorIP4NodeNS_9allocatorIS2_EEE22__construct_one_at_endB7v160006IJRKS2_EEEvDpOT_, symObjAddr: 0x44F0, symBinAddr: 0x10000852C, symSize: 0x98 }
  - { offsetInCU: 0xE8FC, offset: 0xE8FC, size: 0x8, addend: 0x0, symName: __ZNSt3__16vectorIP4NodeNS_9allocatorIS2_EEE21__push_back_slow_pathIRKS2_EEvOT_, symObjAddr: 0x4588, symBinAddr: 0x1000085C4, symSize: 0xE0 }
  - { offsetInCU: 0xE959, offset: 0xE959, size: 0x8, addend: 0x0, symName: __ZNSt3__117__compressed_pairIPP4NodeNS_9allocatorIS2_EEE5firstB7v160006Ev, symObjAddr: 0x4668, symBinAddr: 0x1000086A4, symSize: 0x24 }
  - { offsetInCU: 0xE97E, offset: 0xE97E, size: 0x8, addend: 0x0, symName: __ZNSt3__122__compressed_pair_elemIPP4NodeLi0ELb0EE5__getB7v160006Ev, symObjAddr: 0x468C, symBinAddr: 0x1000086C8, symSize: 0x14 }
  - { offsetInCU: 0xE9BC, offset: 0xE9BC, size: 0x8, addend: 0x0, symName: __ZNSt3__16vectorIP4NodeNS_9allocatorIS2_EEE21_ConstructTransactionC1B7v160006ERS5_m, symObjAddr: 0x46A0, symBinAddr: 0x1000086DC, symSize: 0x3C }
  - { offsetInCU: 0xEA03, offset: 0xEA03, size: 0x8, addend: 0x0, symName: __ZNSt3__116allocator_traitsINS_9allocatorIP4NodeEEE9constructB7v160006IS3_JRKS3_EvEEvRS4_PT_DpOT0_, symObjAddr: 0x46DC, symBinAddr: 0x100008718, symSize: 0x34 }
  - { offsetInCU: 0xEA5A, offset: 0xEA5A, size: 0x8, addend: 0x0, symName: __ZNSt3__16vectorIP4NodeNS_9allocatorIS2_EEE21_ConstructTransactionD1B7v160006Ev, symObjAddr: 0x4710, symBinAddr: 0x10000874C, symSize: 0x2C }
  - { offsetInCU: 0xEA83, offset: 0xEA83, size: 0x8, addend: 0x0, symName: __ZNSt3__16vectorIP4NodeNS_9allocatorIS2_EEE21_ConstructTransactionC2B7v160006ERS5_m, symObjAddr: 0x473C, symBinAddr: 0x100008778, symSize: 0x44 }
  - { offsetInCU: 0xEACA, offset: 0xEACA, size: 0x8, addend: 0x0, symName: __ZNSt3__19allocatorIP4NodeE9constructB7v160006IS2_JRKS2_EEEvPT_DpOT0_, symObjAddr: 0x4780, symBinAddr: 0x1000087BC, symSize: 0x28 }
  - { offsetInCU: 0xEB1F, offset: 0xEB1F, size: 0x8, addend: 0x0, symName: __ZNSt3__16vectorIP4NodeNS_9allocatorIS2_EEE21_ConstructTransactionD2B7v160006Ev, symObjAddr: 0x47A8, symBinAddr: 0x1000087E4, symSize: 0x20 }
  - { offsetInCU: 0xEB47, offset: 0xEB47, size: 0x8, addend: 0x0, symName: __ZNKSt3__16vectorIP4NodeNS_9allocatorIS2_EEE11__recommendB7v160006Em, symObjAddr: 0x47C8, symBinAddr: 0x100008804, symSize: 0xB4 }
  - { offsetInCU: 0xEB9B, offset: 0xEB9B, size: 0x8, addend: 0x0, symName: __ZNSt3__114__split_bufferIP4NodeRNS_9allocatorIS2_EEEC1EmmS5_, symObjAddr: 0x487C, symBinAddr: 0x1000088B8, symSize: 0x44 }
  - { offsetInCU: 0xEBF0, offset: 0xEBF0, size: 0x8, addend: 0x0, symName: __ZNSt3__114__split_bufferIP4NodeRNS_9allocatorIS2_EEED1Ev, symObjAddr: 0x49D8, symBinAddr: 0x100008A14, symSize: 0x2C }
  - { offsetInCU: 0xEC1A, offset: 0xEC1A, size: 0x8, addend: 0x0, symName: __ZNKSt3__16vectorIP4NodeNS_9allocatorIS2_EEE8max_sizeEv, symObjAddr: 0x4A04, symBinAddr: 0x100008A40, symSize: 0x74 }
  - { offsetInCU: 0xEC41, offset: 0xEC41, size: 0x8, addend: 0x0, symName: __ZNKSt3__16vectorIP4NodeNS_9allocatorIS2_EEE20__throw_length_errorB7v160006Ev, symObjAddr: 0x4A78, symBinAddr: 0x100008AB4, symSize: 0x1C }
  - { offsetInCU: 0xEC70, offset: 0xEC70, size: 0x8, addend: 0x0, symName: __ZNSt3__116allocator_traitsINS_9allocatorIP4NodeEEE8max_sizeB7v160006IS4_vEEmRKS4_, symObjAddr: 0x4AEC, symBinAddr: 0x100008B28, symSize: 0x24 }
  - { offsetInCU: 0xEC9E, offset: 0xEC9E, size: 0x8, addend: 0x0, symName: __ZNKSt3__16vectorIP4NodeNS_9allocatorIS2_EEE7__allocB7v160006Ev, symObjAddr: 0x4B10, symBinAddr: 0x100008B4C, symSize: 0x28 }
  - { offsetInCU: 0xECC3, offset: 0xECC3, size: 0x8, addend: 0x0, symName: __ZNSt3__114numeric_limitsIlE3maxB7v160006Ev, symObjAddr: 0x4B38, symBinAddr: 0x100008B74, symSize: 0x14 }
  - { offsetInCU: 0xECEB, offset: 0xECEB, size: 0x8, addend: 0x0, symName: __ZNKSt3__16__lessImmEclB7v160006ERKmS3_, symObjAddr: 0x4BA0, symBinAddr: 0x100008BDC, symSize: 0x34 }
  - { offsetInCU: 0xED2C, offset: 0xED2C, size: 0x8, addend: 0x0, symName: __ZNKSt3__19allocatorIP4NodeE8max_sizeB7v160006Ev, symObjAddr: 0x4BD4, symBinAddr: 0x100008C10, symSize: 0x14 }
  - { offsetInCU: 0xED51, offset: 0xED51, size: 0x8, addend: 0x0, symName: __ZNKSt3__117__compressed_pairIPP4NodeNS_9allocatorIS2_EEE6secondB7v160006Ev, symObjAddr: 0x4BE8, symBinAddr: 0x100008C24, symSize: 0x24 }
  - { offsetInCU: 0xED76, offset: 0xED76, size: 0x8, addend: 0x0, symName: __ZNKSt3__122__compressed_pair_elemINS_9allocatorIP4NodeEELi1ELb1EE5__getB7v160006Ev, symObjAddr: 0x4C0C, symBinAddr: 0x100008C48, symSize: 0x14 }
  - { offsetInCU: 0xED9B, offset: 0xED9B, size: 0x8, addend: 0x0, symName: __ZNSt3__123__libcpp_numeric_limitsIlLb1EE3maxB7v160006Ev, symObjAddr: 0x4C20, symBinAddr: 0x100008C5C, symSize: 0x8 }
  - { offsetInCU: 0xEDAF, offset: 0xEDAF, size: 0x8, addend: 0x0, symName: __ZNSt12length_errorC1B7v160006EPKc, symObjAddr: 0x4C8C, symBinAddr: 0x100008CC8, symSize: 0x34 }
  - { offsetInCU: 0xEDE6, offset: 0xEDE6, size: 0x8, addend: 0x0, symName: __ZNSt12length_errorC2B7v160006EPKc, symObjAddr: 0x4CC0, symBinAddr: 0x100008CFC, symSize: 0x4C }
  - { offsetInCU: 0xEE1D, offset: 0xEE1D, size: 0x8, addend: 0x0, symName: __ZNSt3__114__split_bufferIP4NodeRNS_9allocatorIS2_EEEC2EmmS5_, symObjAddr: 0x4D60, symBinAddr: 0x100008D9C, symSize: 0xD4 }
  - { offsetInCU: 0xEE90, offset: 0xEE90, size: 0x8, addend: 0x0, symName: __ZNSt3__117__compressed_pairIPP4NodeRNS_9allocatorIS2_EEEC1B7v160006IDnS6_EEOT_OT0_, symObjAddr: 0x4E34, symBinAddr: 0x100008E70, symSize: 0x3C }
  - { offsetInCU: 0xEEE7, offset: 0xEEE7, size: 0x8, addend: 0x0, symName: __ZNSt3__114__split_bufferIP4NodeRNS_9allocatorIS2_EEE7__allocB7v160006Ev, symObjAddr: 0x4EB0, symBinAddr: 0x100008EEC, symSize: 0x28 }
  - { offsetInCU: 0xEF0C, offset: 0xEF0C, size: 0x8, addend: 0x0, symName: __ZNSt3__114__split_bufferIP4NodeRNS_9allocatorIS2_EEE9__end_capB7v160006Ev, symObjAddr: 0x4ED8, symBinAddr: 0x100008F14, symSize: 0x28 }
  - { offsetInCU: 0xEF31, offset: 0xEF31, size: 0x8, addend: 0x0, symName: __ZNSt3__117__compressed_pairIPP4NodeRNS_9allocatorIS2_EEEC2B7v160006IDnS6_EEOT_OT0_, symObjAddr: 0x4F00, symBinAddr: 0x100008F3C, symSize: 0x48 }
  - { offsetInCU: 0xEF88, offset: 0xEF88, size: 0x8, addend: 0x0, symName: __ZNSt3__122__compressed_pair_elemIRNS_9allocatorIP4NodeEELi1ELb0EEC2B7v160006IS5_vEEOT_, symObjAddr: 0x4F48, symBinAddr: 0x100008F84, symSize: 0x20 }
  - { offsetInCU: 0xEFC9, offset: 0xEFC9, size: 0x8, addend: 0x0, symName: __ZNSt3__19allocatorIP4NodeE8allocateB7v160006Em, symObjAddr: 0x4F68, symBinAddr: 0x100008FA4, symSize: 0x84 }
  - { offsetInCU: 0xEFFC, offset: 0xEFFC, size: 0x8, addend: 0x0, symName: __ZNSt3__117__compressed_pairIPP4NodeRNS_9allocatorIS2_EEE6secondB7v160006Ev, symObjAddr: 0x506C, symBinAddr: 0x1000090A8, symSize: 0x28 }
  - { offsetInCU: 0xF021, offset: 0xF021, size: 0x8, addend: 0x0, symName: __ZNSt3__122__compressed_pair_elemIRNS_9allocatorIP4NodeEELi1ELb0EE5__getB7v160006Ev, symObjAddr: 0x5094, symBinAddr: 0x1000090D0, symSize: 0x18 }
  - { offsetInCU: 0xF046, offset: 0xF046, size: 0x8, addend: 0x0, symName: __ZNSt3__117__compressed_pairIPP4NodeRNS_9allocatorIS2_EEE5firstB7v160006Ev, symObjAddr: 0x50AC, symBinAddr: 0x1000090E8, symSize: 0x24 }
  - { offsetInCU: 0xF06B, offset: 0xF06B, size: 0x8, addend: 0x0, symName: __ZNSt3__116reverse_iteratorIPP4NodeEC1B7v160006ES3_, symObjAddr: 0x51B8, symBinAddr: 0x1000091F4, symSize: 0x34 }
  - { offsetInCU: 0xF0A2, offset: 0xF0A2, size: 0x8, addend: 0x0, symName: __ZNKSt3__116reverse_iteratorIPP4NodeE4baseB7v160006Ev, symObjAddr: 0x51EC, symBinAddr: 0x100009228, symSize: 0x18 }
  - { offsetInCU: 0xF0C7, offset: 0xF0C7, size: 0x8, addend: 0x0, symName: __ZNKSt3__16vectorIP4NodeNS_9allocatorIS2_EEE14__annotate_newB7v160006Em, symObjAddr: 0x5240, symBinAddr: 0x10000927C, symSize: 0xAC }
  - { offsetInCU: 0xF0FB, offset: 0xF0FB, size: 0x8, addend: 0x0, symName: __ZNKSt3__116reverse_iteratorIPP4NodeEdeB7v160006Ev, symObjAddr: 0x5394, symBinAddr: 0x1000093D0, symSize: 0x28 }
  - { offsetInCU: 0xF12E, offset: 0xF12E, size: 0x8, addend: 0x0, symName: __ZNSt3__116reverse_iteratorIPP4NodeEppB7v160006Ev, symObjAddr: 0x53BC, symBinAddr: 0x1000093F8, symSize: 0x20 }
  - { offsetInCU: 0xF158, offset: 0xF158, size: 0x8, addend: 0x0, symName: __ZNSt3__119__to_address_helperINS_16reverse_iteratorIPP4NodeEEvE6__callB7v160006ERKS5_, symObjAddr: 0x5454, symBinAddr: 0x100009490, symSize: 0x4C }
  - { offsetInCU: 0xF17B, offset: 0xF17B, size: 0x8, addend: 0x0, symName: __ZNKSt3__116reverse_iteratorIPP4NodeEptB7v160006Ev, symObjAddr: 0x54A0, symBinAddr: 0x1000094DC, symSize: 0x24 }
  - { offsetInCU: 0xF1C3, offset: 0xF1C3, size: 0x8, addend: 0x0, symName: __ZNKSt3__111__move_loopINS_17_ClassicAlgPolicyEEclB7v160006INS_16reverse_iteratorIPP4NodeEES8_S8_EENS_4pairIT_T1_EESA_T0_SB_, symObjAddr: 0x5754, symBinAddr: 0x100009790, symSize: 0xA0 }
  - { offsetInCU: 0xF232, offset: 0xF232, size: 0x8, addend: 0x0, symName: __ZNSt3__18_IterOpsINS_17_ClassicAlgPolicyEE11__iter_moveB7v160006IRNS_16reverse_iteratorIPP4NodeEEEENS_9enable_ifIXsr12is_referenceIDTdeclsr3stdE7declvalIRT_EEEEE5valueEDTclsr3stdE4movedeclsr3stdE7declvalISC_EEEEE4typeEOSB_, symObjAddr: 0x5954, symBinAddr: 0x100009990, symSize: 0x28 }
  - { offsetInCU: 0xF25E, offset: 0xF25E, size: 0x8, addend: 0x0, symName: __ZNSt3__18_IterOpsINS_17_ClassicAlgPolicyEE25__validate_iter_referenceB7v160006IRNS_16reverse_iteratorIPP4NodeEEEEvv, symObjAddr: 0x597C, symBinAddr: 0x1000099B8, symSize: 0x4 }
  - { offsetInCU: 0xF27C, offset: 0xF27C, size: 0x8, addend: 0x0, symName: __ZNSt3__118__unwrap_iter_implINS_16reverse_iteratorIPP4NodeEELb0EE8__unwrapB7v160006ES5_, symObjAddr: 0x5980, symBinAddr: 0x1000099BC, symSize: 0x24 }
  - { offsetInCU: 0xF29F, offset: 0xF29F, size: 0x8, addend: 0x0, symName: __ZNSt3__14pairINS_16reverse_iteratorIPP4NodeEES5_EC1B7v160006ERKS5_S8_, symObjAddr: 0x59A4, symBinAddr: 0x1000099E0, symSize: 0x3C }
  - { offsetInCU: 0xF2E4, offset: 0xF2E4, size: 0x8, addend: 0x0, symName: __ZNSt3__14pairINS_16reverse_iteratorIPP4NodeEES5_EC2B7v160006ERKS5_S8_, symObjAddr: 0x59E0, symBinAddr: 0x100009A1C, symSize: 0x34 }
  - { offsetInCU: 0xF329, offset: 0xF329, size: 0x8, addend: 0x0, symName: __ZNSt3__118__unwrap_iter_implINS_16reverse_iteratorIPP4NodeEELb0EE8__rewrapB7v160006ES5_S5_, symObjAddr: 0x5A14, symBinAddr: 0x100009A50, symSize: 0x2C }
  - { offsetInCU: 0xF357, offset: 0xF357, size: 0x8, addend: 0x0, symName: __ZNSt3__116reverse_iteratorIPP4NodeEC2B7v160006ES3_, symObjAddr: 0x5A40, symBinAddr: 0x100009A7C, symSize: 0x28 }
  - { offsetInCU: 0xF38E, offset: 0xF38E, size: 0x8, addend: 0x0, symName: __ZNSt3__114__split_bufferIP4NodeRNS_9allocatorIS2_EEED2Ev, symObjAddr: 0x5A68, symBinAddr: 0x100009AA4, symSize: 0x80 }
  - { offsetInCU: 0xF3B9, offset: 0xF3B9, size: 0x8, addend: 0x0, symName: __ZNSt3__114__split_bufferIP4NodeRNS_9allocatorIS2_EEE5clearB7v160006Ev, symObjAddr: 0x5AE8, symBinAddr: 0x100009B24, symSize: 0x28 }
  - { offsetInCU: 0xF3DE, offset: 0xF3DE, size: 0x8, addend: 0x0, symName: __ZNKSt3__114__split_bufferIP4NodeRNS_9allocatorIS2_EEE8capacityB7v160006Ev, symObjAddr: 0x5B10, symBinAddr: 0x100009B4C, symSize: 0x40 }
  - { offsetInCU: 0xF403, offset: 0xF403, size: 0x8, addend: 0x0, symName: __ZNSt3__114__split_bufferIP4NodeRNS_9allocatorIS2_EEE17__destruct_at_endB7v160006EPS2_, symObjAddr: 0x5B50, symBinAddr: 0x100009B8C, symSize: 0x2C }
  - { offsetInCU: 0xF435, offset: 0xF435, size: 0x8, addend: 0x0, symName: __ZNSt3__114__split_bufferIP4NodeRNS_9allocatorIS2_EEE17__destruct_at_endB7v160006EPS2_NS_17integral_constantIbLb0EEE, symObjAddr: 0x5B7C, symBinAddr: 0x100009BB8, symSize: 0x94 }
  - { offsetInCU: 0xF475, offset: 0xF475, size: 0x8, addend: 0x0, symName: __ZNKSt3__114__split_bufferIP4NodeRNS_9allocatorIS2_EEE9__end_capB7v160006Ev, symObjAddr: 0x5C10, symBinAddr: 0x100009C4C, symSize: 0x28 }
  - { offsetInCU: 0xF49A, offset: 0xF49A, size: 0x8, addend: 0x0, symName: __ZNKSt3__117__compressed_pairIPP4NodeRNS_9allocatorIS2_EEE5firstB7v160006Ev, symObjAddr: 0x5C38, symBinAddr: 0x100009C74, symSize: 0x24 }
  - { offsetInCU: 0xF4BF, offset: 0xF4BF, size: 0x8, addend: 0x0, symName: __ZNSt3__16vectorIiNS_9allocatorIiEEE9__end_capB7v160006Ev, symObjAddr: 0x5C5C, symBinAddr: 0x100009C98, symSize: 0x28 }
  - { offsetInCU: 0xF4E4, offset: 0xF4E4, size: 0x8, addend: 0x0, symName: __ZNSt3__16vectorIiNS_9allocatorIiEEE22__construct_one_at_endB7v160006IJRKiEEEvDpOT_, symObjAddr: 0x5C84, symBinAddr: 0x100009CC0, symSize: 0x98 }
  - { offsetInCU: 0xF531, offset: 0xF531, size: 0x8, addend: 0x0, symName: __ZNSt3__16vectorIiNS_9allocatorIiEEE21__push_back_slow_pathIRKiEEvOT_, symObjAddr: 0x5D1C, symBinAddr: 0x100009D58, symSize: 0xE0 }
  - { offsetInCU: 0xF58E, offset: 0xF58E, size: 0x8, addend: 0x0, symName: __ZNSt3__117__compressed_pairIPiNS_9allocatorIiEEE5firstB7v160006Ev, symObjAddr: 0x5DFC, symBinAddr: 0x100009E38, symSize: 0x24 }
  - { offsetInCU: 0xF5B3, offset: 0xF5B3, size: 0x8, addend: 0x0, symName: __ZNSt3__122__compressed_pair_elemIPiLi0ELb0EE5__getB7v160006Ev, symObjAddr: 0x5E20, symBinAddr: 0x100009E5C, symSize: 0x14 }
  - { offsetInCU: 0xF5F1, offset: 0xF5F1, size: 0x8, addend: 0x0, symName: __ZNSt3__16vectorIiNS_9allocatorIiEEE21_ConstructTransactionC1B7v160006ERS3_m, symObjAddr: 0x5E34, symBinAddr: 0x100009E70, symSize: 0x3C }
  - { offsetInCU: 0xF638, offset: 0xF638, size: 0x8, addend: 0x0, symName: __ZNSt3__116allocator_traitsINS_9allocatorIiEEE9constructB7v160006IiJRKiEvEEvRS2_PT_DpOT0_, symObjAddr: 0x5E70, symBinAddr: 0x100009EAC, symSize: 0x34 }
  - { offsetInCU: 0xF68F, offset: 0xF68F, size: 0x8, addend: 0x0, symName: __ZNSt3__16vectorIiNS_9allocatorIiEEE21_ConstructTransactionD1B7v160006Ev, symObjAddr: 0x5EA4, symBinAddr: 0x100009EE0, symSize: 0x2C }
  - { offsetInCU: 0xF6B8, offset: 0xF6B8, size: 0x8, addend: 0x0, symName: __ZNSt3__16vectorIiNS_9allocatorIiEEE21_ConstructTransactionC2B7v160006ERS3_m, symObjAddr: 0x5ED0, symBinAddr: 0x100009F0C, symSize: 0x44 }
  - { offsetInCU: 0xF6FF, offset: 0xF6FF, size: 0x8, addend: 0x0, symName: __ZNSt3__19allocatorIiE9constructB7v160006IiJRKiEEEvPT_DpOT0_, symObjAddr: 0x5F14, symBinAddr: 0x100009F50, symSize: 0x28 }
  - { offsetInCU: 0xF754, offset: 0xF754, size: 0x8, addend: 0x0, symName: __ZNSt3__16vectorIiNS_9allocatorIiEEE21_ConstructTransactionD2B7v160006Ev, symObjAddr: 0x5F3C, symBinAddr: 0x100009F78, symSize: 0x20 }
  - { offsetInCU: 0xF77C, offset: 0xF77C, size: 0x8, addend: 0x0, symName: __ZNKSt3__16vectorIiNS_9allocatorIiEEE11__recommendB7v160006Em, symObjAddr: 0x5F5C, symBinAddr: 0x100009F98, symSize: 0xB4 }
  - { offsetInCU: 0xF7D0, offset: 0xF7D0, size: 0x8, addend: 0x0, symName: __ZNSt3__114__split_bufferIiRNS_9allocatorIiEEEC1EmmS3_, symObjAddr: 0x6010, symBinAddr: 0x10000A04C, symSize: 0x44 }
  - { offsetInCU: 0xF825, offset: 0xF825, size: 0x8, addend: 0x0, symName: __ZNSt3__114__split_bufferIiRNS_9allocatorIiEEED1Ev, symObjAddr: 0x616C, symBinAddr: 0x10000A1A8, symSize: 0x2C }
  - { offsetInCU: 0xF84F, offset: 0xF84F, size: 0x8, addend: 0x0, symName: __ZNKSt3__16vectorIiNS_9allocatorIiEEE8max_sizeEv, symObjAddr: 0x6198, symBinAddr: 0x10000A1D4, symSize: 0x74 }
  - { offsetInCU: 0xF876, offset: 0xF876, size: 0x8, addend: 0x0, symName: __ZNKSt3__16vectorIiNS_9allocatorIiEEE20__throw_length_errorB7v160006Ev, symObjAddr: 0x620C, symBinAddr: 0x10000A248, symSize: 0x1C }
  - { offsetInCU: 0xF8A5, offset: 0xF8A5, size: 0x8, addend: 0x0, symName: __ZNSt3__116allocator_traitsINS_9allocatorIiEEE8max_sizeB7v160006IS2_vEEmRKS2_, symObjAddr: 0x6228, symBinAddr: 0x10000A264, symSize: 0x24 }
  - { offsetInCU: 0xF8D3, offset: 0xF8D3, size: 0x8, addend: 0x0, symName: __ZNKSt3__16vectorIiNS_9allocatorIiEEE7__allocB7v160006Ev, symObjAddr: 0x624C, symBinAddr: 0x10000A288, symSize: 0x28 }
  - { offsetInCU: 0xF8F8, offset: 0xF8F8, size: 0x8, addend: 0x0, symName: __ZNKSt3__19allocatorIiE8max_sizeB7v160006Ev, symObjAddr: 0x6274, symBinAddr: 0x10000A2B0, symSize: 0x14 }
  - { offsetInCU: 0xF91D, offset: 0xF91D, size: 0x8, addend: 0x0, symName: __ZNKSt3__117__compressed_pairIPiNS_9allocatorIiEEE6secondB7v160006Ev, symObjAddr: 0x6288, symBinAddr: 0x10000A2C4, symSize: 0x24 }
  - { offsetInCU: 0xF942, offset: 0xF942, size: 0x8, addend: 0x0, symName: __ZNKSt3__122__compressed_pair_elemINS_9allocatorIiEELi1ELb1EE5__getB7v160006Ev, symObjAddr: 0x62AC, symBinAddr: 0x10000A2E8, symSize: 0x14 }
  - { offsetInCU: 0xF967, offset: 0xF967, size: 0x8, addend: 0x0, symName: __ZNSt3__114__split_bufferIiRNS_9allocatorIiEEEC2EmmS3_, symObjAddr: 0x62C0, symBinAddr: 0x10000A2FC, symSize: 0xD4 }
  - { offsetInCU: 0xF9DA, offset: 0xF9DA, size: 0x8, addend: 0x0, symName: __ZNSt3__117__compressed_pairIPiRNS_9allocatorIiEEEC1B7v160006IDnS4_EEOT_OT0_, symObjAddr: 0x6394, symBinAddr: 0x10000A3D0, symSize: 0x3C }
  - { offsetInCU: 0xFA31, offset: 0xFA31, size: 0x8, addend: 0x0, symName: __ZNSt3__114__split_bufferIiRNS_9allocatorIiEEE7__allocB7v160006Ev, symObjAddr: 0x6410, symBinAddr: 0x10000A44C, symSize: 0x28 }
  - { offsetInCU: 0xFA56, offset: 0xFA56, size: 0x8, addend: 0x0, symName: __ZNSt3__114__split_bufferIiRNS_9allocatorIiEEE9__end_capB7v160006Ev, symObjAddr: 0x6438, symBinAddr: 0x10000A474, symSize: 0x28 }
  - { offsetInCU: 0xFA7B, offset: 0xFA7B, size: 0x8, addend: 0x0, symName: __ZNSt3__117__compressed_pairIPiRNS_9allocatorIiEEEC2B7v160006IDnS4_EEOT_OT0_, symObjAddr: 0x6460, symBinAddr: 0x10000A49C, symSize: 0x48 }
  - { offsetInCU: 0xFAD2, offset: 0xFAD2, size: 0x8, addend: 0x0, symName: __ZNSt3__122__compressed_pair_elemIRNS_9allocatorIiEELi1ELb0EEC2B7v160006IS3_vEEOT_, symObjAddr: 0x64A8, symBinAddr: 0x10000A4E4, symSize: 0x20 }
  - { offsetInCU: 0xFB13, offset: 0xFB13, size: 0x8, addend: 0x0, symName: __ZNSt3__19allocatorIiE8allocateB7v160006Em, symObjAddr: 0x64C8, symBinAddr: 0x10000A504, symSize: 0x84 }
  - { offsetInCU: 0xFB46, offset: 0xFB46, size: 0x8, addend: 0x0, symName: __ZNSt3__117__compressed_pairIPiRNS_9allocatorIiEEE6secondB7v160006Ev, symObjAddr: 0x654C, symBinAddr: 0x10000A588, symSize: 0x28 }
  - { offsetInCU: 0xFB6B, offset: 0xFB6B, size: 0x8, addend: 0x0, symName: __ZNSt3__122__compressed_pair_elemIRNS_9allocatorIiEELi1ELb0EE5__getB7v160006Ev, symObjAddr: 0x6574, symBinAddr: 0x10000A5B0, symSize: 0x18 }
  - { offsetInCU: 0xFB90, offset: 0xFB90, size: 0x8, addend: 0x0, symName: __ZNSt3__117__compressed_pairIPiRNS_9allocatorIiEEE5firstB7v160006Ev, symObjAddr: 0x658C, symBinAddr: 0x10000A5C8, symSize: 0x24 }
  - { offsetInCU: 0xFBB5, offset: 0xFBB5, size: 0x8, addend: 0x0, symName: __ZNSt3__116reverse_iteratorIPiEC1B7v160006ES1_, symObjAddr: 0x6698, symBinAddr: 0x10000A6D4, symSize: 0x34 }
  - { offsetInCU: 0xFBEC, offset: 0xFBEC, size: 0x8, addend: 0x0, symName: __ZNKSt3__116reverse_iteratorIPiE4baseB7v160006Ev, symObjAddr: 0x66CC, symBinAddr: 0x10000A708, symSize: 0x18 }
  - { offsetInCU: 0xFC11, offset: 0xFC11, size: 0x8, addend: 0x0, symName: __ZNKSt3__16vectorIiNS_9allocatorIiEEE14__annotate_newB7v160006Em, symObjAddr: 0x6720, symBinAddr: 0x10000A75C, symSize: 0xAC }
  - { offsetInCU: 0xFC45, offset: 0xFC45, size: 0x8, addend: 0x0, symName: __ZNKSt3__116reverse_iteratorIPiEdeB7v160006Ev, symObjAddr: 0x6874, symBinAddr: 0x10000A8B0, symSize: 0x28 }
  - { offsetInCU: 0xFC78, offset: 0xFC78, size: 0x8, addend: 0x0, symName: __ZNSt3__116reverse_iteratorIPiEppB7v160006Ev, symObjAddr: 0x689C, symBinAddr: 0x10000A8D8, symSize: 0x20 }
  - { offsetInCU: 0xFCA2, offset: 0xFCA2, size: 0x8, addend: 0x0, symName: __ZNSt3__119__to_address_helperINS_16reverse_iteratorIPiEEvE6__callB7v160006ERKS3_, symObjAddr: 0x6934, symBinAddr: 0x10000A970, symSize: 0x4C }
  - { offsetInCU: 0xFCC5, offset: 0xFCC5, size: 0x8, addend: 0x0, symName: __ZNKSt3__116reverse_iteratorIPiEptB7v160006Ev, symObjAddr: 0x6980, symBinAddr: 0x10000A9BC, symSize: 0x24 }
  - { offsetInCU: 0xFD03, offset: 0xFD03, size: 0x8, addend: 0x0, symName: __ZNKSt3__111__move_loopINS_17_ClassicAlgPolicyEEclB7v160006INS_16reverse_iteratorIPiEES6_S6_EENS_4pairIT_T1_EES8_T0_S9_, symObjAddr: 0x6C34, symBinAddr: 0x10000AC70, symSize: 0xA0 }
  - { offsetInCU: 0xFD72, offset: 0xFD72, size: 0x8, addend: 0x0, symName: __ZNSt3__18_IterOpsINS_17_ClassicAlgPolicyEE11__iter_moveB7v160006IRNS_16reverse_iteratorIPiEEEENS_9enable_ifIXsr12is_referenceIDTdeclsr3stdE7declvalIRT_EEEEE5valueEDTclsr3stdE4movedeclsr3stdE7declvalISA_EEEEE4typeEOS9_, symObjAddr: 0x6E34, symBinAddr: 0x10000AE70, symSize: 0x28 }
  - { offsetInCU: 0xFD9E, offset: 0xFD9E, size: 0x8, addend: 0x0, symName: __ZNSt3__18_IterOpsINS_17_ClassicAlgPolicyEE25__validate_iter_referenceB7v160006IRNS_16reverse_iteratorIPiEEEEvv, symObjAddr: 0x6E5C, symBinAddr: 0x10000AE98, symSize: 0x4 }
  - { offsetInCU: 0xFDBC, offset: 0xFDBC, size: 0x8, addend: 0x0, symName: __ZNSt3__118__unwrap_iter_implINS_16reverse_iteratorIPiEELb0EE8__unwrapB7v160006ES3_, symObjAddr: 0x6E60, symBinAddr: 0x10000AE9C, symSize: 0x24 }
  - { offsetInCU: 0xFDDF, offset: 0xFDDF, size: 0x8, addend: 0x0, symName: __ZNSt3__14pairINS_16reverse_iteratorIPiEES3_EC1B7v160006ERKS3_S6_, symObjAddr: 0x6E84, symBinAddr: 0x10000AEC0, symSize: 0x3C }
  - { offsetInCU: 0xFE24, offset: 0xFE24, size: 0x8, addend: 0x0, symName: __ZNSt3__14pairINS_16reverse_iteratorIPiEES3_EC2B7v160006ERKS3_S6_, symObjAddr: 0x6EC0, symBinAddr: 0x10000AEFC, symSize: 0x34 }
  - { offsetInCU: 0xFE69, offset: 0xFE69, size: 0x8, addend: 0x0, symName: __ZNSt3__118__unwrap_iter_implINS_16reverse_iteratorIPiEELb0EE8__rewrapB7v160006ES3_S3_, symObjAddr: 0x6EF4, symBinAddr: 0x10000AF30, symSize: 0x2C }
  - { offsetInCU: 0xFE97, offset: 0xFE97, size: 0x8, addend: 0x0, symName: __ZNSt3__116reverse_iteratorIPiEC2B7v160006ES1_, symObjAddr: 0x6F20, symBinAddr: 0x10000AF5C, symSize: 0x28 }
  - { offsetInCU: 0xFECE, offset: 0xFECE, size: 0x8, addend: 0x0, symName: __ZNSt3__114__split_bufferIiRNS_9allocatorIiEEED2Ev, symObjAddr: 0x6F48, symBinAddr: 0x10000AF84, symSize: 0x80 }
  - { offsetInCU: 0xFEF9, offset: 0xFEF9, size: 0x8, addend: 0x0, symName: __ZNSt3__114__split_bufferIiRNS_9allocatorIiEEE5clearB7v160006Ev, symObjAddr: 0x6FC8, symBinAddr: 0x10000B004, symSize: 0x28 }
  - { offsetInCU: 0xFF1E, offset: 0xFF1E, size: 0x8, addend: 0x0, symName: __ZNKSt3__114__split_bufferIiRNS_9allocatorIiEEE8capacityB7v160006Ev, symObjAddr: 0x6FF0, symBinAddr: 0x10000B02C, symSize: 0x40 }
  - { offsetInCU: 0xFF43, offset: 0xFF43, size: 0x8, addend: 0x0, symName: __ZNSt3__114__split_bufferIiRNS_9allocatorIiEEE17__destruct_at_endB7v160006EPi, symObjAddr: 0x7030, symBinAddr: 0x10000B06C, symSize: 0x2C }
  - { offsetInCU: 0xFF75, offset: 0xFF75, size: 0x8, addend: 0x0, symName: __ZNSt3__114__split_bufferIiRNS_9allocatorIiEEE17__destruct_at_endB7v160006EPiNS_17integral_constantIbLb0EEE, symObjAddr: 0x705C, symBinAddr: 0x10000B098, symSize: 0x94 }
  - { offsetInCU: 0xFFB5, offset: 0xFFB5, size: 0x8, addend: 0x0, symName: __ZNKSt3__114__split_bufferIiRNS_9allocatorIiEEE9__end_capB7v160006Ev, symObjAddr: 0x70F0, symBinAddr: 0x10000B12C, symSize: 0x28 }
  - { offsetInCU: 0xFFDA, offset: 0xFFDA, size: 0x8, addend: 0x0, symName: __ZNKSt3__117__compressed_pairIPiRNS_9allocatorIiEEE5firstB7v160006Ev, symObjAddr: 0x7118, symBinAddr: 0x10000B154, symSize: 0x24 }
  - { offsetInCU: 0xFFFF, offset: 0xFFFF, size: 0x8, addend: 0x0, symName: __ZNSt3__16vectorIP4NodeNS_9allocatorIS2_EEE11__make_iterB7v160006EPS2_, symObjAddr: 0x713C, symBinAddr: 0x10000B178, symSize: 0x34 }
  - { offsetInCU: 0x10033, offset: 0x10033, size: 0x8, addend: 0x0, symName: __ZNSt3__111__wrap_iterIPP4NodeEC1B7v160006EPKvS3_, symObjAddr: 0x7170, symBinAddr: 0x10000B1AC, symSize: 0x3C }
  - { offsetInCU: 0x10078, offset: 0x10078, size: 0x8, addend: 0x0, symName: __ZNSt3__111__wrap_iterIPP4NodeEC2B7v160006EPKvS3_, symObjAddr: 0x71AC, symBinAddr: 0x10000B1E8, symSize: 0x24 }
  - { offsetInCU: 0x100BD, offset: 0x100BD, size: 0x8, addend: 0x0, symName: __ZNKSt3__111__wrap_iterIPP4NodeE4baseB7v160006Ev, symObjAddr: 0x7218, symBinAddr: 0x10000B254, symSize: 0x18 }
...
